(csage.matrix.matrix0
unpickle
p0
(csage.matrix.matrix_integer_dense
Matrix_integer_dense
p1
csage.structure.unique_representation
unreduce
p2
(csage.matrix.matrix_space
MatrixSpace
p3
(csage.rings.integer_ring
IntegerRing
p4
(tRp5
I1
I7
I00
S'flint'
p6
tp7
(dp8
tp9
Rp10
I00
NS'1 4 7 0 0 0 1'
p11
I0
tp12
Rp13
g0
(g1
g2
(g3
(g5
I3
I7
I00
g6
tp14
(dp15
tp16
Rp17
I00
NS'1 0 0 1 0 0 0 0 1 0 0 1 0 0 0 0 1 0 0 1 0'
p18
I0
tp19
Rp20
csage.rings.integer
make_integer
p21
(S'k'
p22
tp23
Rp24
(lp25
(g21
(S'45'
p26
tp27
Rp28
g21
(S'2g'
p29
tp30
Rp31
g21
(S'17'
p32
tp33
Rp34
tp35
a(I30
tp36
a(I30
tp37
a(I48
tp38
a(I40
tp39
a(I34
tp40
a(I40
tp41
a(I41
tp42
a(I50
tp43
a(I48
tp44
a(I41
tp45
a(I31
tp46
a(I42
tp47
a(I40
tp48
a(I42
tp49
a(I33
tp50
a(I29
tp51
a(I27
tp52
a(I44
tp53
a(I45
tp54
a(I31
tp55
a(lp56
csage.modules.vector_integer_dense
unpickle_v1
p57
(csage.structure.factory
generic_factory_unpickle
p58
(csage.structure.factory
lookup_global
p59
(S'FreeModule'
p60
tp61
Rp62
(I7
I6
tp63
(g5
I7
I00
Ntp64
(dp65
tp66
Rp67
(lp68
g21
(S'0'
p69
tp70
Rp71
ag21
(g69
tp72
Rp73
ag21
(g69
tp74
Rp75
ag21
(g69
tp76
Rp77
ag21
(g69
tp78
Rp79
ag21
(g69
tp80
Rp81
ag21
(g69
tp82
Rp83
aI7
I01
tp84
Rp85
ag57
(g67
(lp86
g21
(g69
tp87
Rp88
ag21
(g69
tp89
Rp90
ag21
(g69
tp91
Rp92
ag21
(g69
tp93
Rp94
ag21
(g69
tp95
Rp96
ag21
(g69
tp97
Rp98
ag21
(g69
tp99
Rp100
aI7
I01
tp101
Rp102
ag57
(g67
(lp103
g21
(g69
tp104
Rp105
ag21
(g69
tp106
Rp107
ag21
(g69
tp108
Rp109
ag21
(g69
tp110
Rp111
ag21
(g69
tp112
Rp113
ag21
(g69
tp114
Rp115
ag21
(g69
tp116
Rp117
aI7
I01
tp118
Rp119
ag57
(g67
(lp120
g21
(g69
tp121
Rp122
ag21
(g69
tp123
Rp124
ag21
(g69
tp125
Rp126
ag21
(g69
tp127
Rp128
ag21
(g69
tp129
Rp130
ag21
(g69
tp131
Rp132
ag21
(g69
tp133
Rp134
aI7
I01
tp135
Rp136
ag57
(g67
(lp137
g21
(g69
tp138
Rp139
ag21
(g69
tp140
Rp141
ag21
(g69
tp142
Rp143
ag21
(g69
tp144
Rp145
ag21
(g69
tp146
Rp147
ag21
(g69
tp148
Rp149
ag21
(g69
tp150
Rp151
aI7
I01
tp152
Rp153
ag57
(g67
(lp154
g21
(g69
tp155
Rp156
ag21
(g69
tp157
Rp158
ag21
(g69
tp159
Rp160
ag21
(g69
tp161
Rp162
ag21
(g69
tp163
Rp164
ag21
(g69
tp165
Rp166
ag21
(g69
tp167
Rp168
aI7
I01
tp169
Rp170
ag57
(g67
(lp171
g21
(g69
tp172
Rp173
ag21
(g69
tp174
Rp175
ag21
(g69
tp176
Rp177
ag21
(g69
tp178
Rp179
ag21
(g69
tp180
Rp181
ag21
(g69
tp182
Rp183
ag21
(g69
tp184
Rp185
aI7
I01
tp186
Rp187
ag57
(g67
(lp188
g21
(g69
tp189
Rp190
ag21
(g69
tp191
Rp192
ag21
(g69
tp193
Rp194
ag21
(g69
tp195
Rp196
ag21
(g69
tp197
Rp198
ag21
(g69
tp199
Rp200
ag21
(g69
tp201
Rp202
aI7
I01
tp203
Rp204
ag57
(g67
(lp205
g21
(g69
tp206
Rp207
ag21
(g69
tp208
Rp209
ag21
(g69
tp210
Rp211
ag21
(g69
tp212
Rp213
ag21
(g69
tp214
Rp215
ag21
(g69
tp216
Rp217
ag21
(g69
tp218
Rp219
aI7
I01
tp220
Rp221
ag57
(g67
(lp222
g21
(g69
tp223
Rp224
ag21
(g69
tp225
Rp226
ag21
(g69
tp227
Rp228
ag21
(g69
tp229
Rp230
ag21
(g69
tp231
Rp232
ag21
(g69
tp233
Rp234
ag21
(g69
tp235
Rp236
aI7
I01
tp237
Rp238
ag57
(g67
(lp239
g21
(g69
tp240
Rp241
ag21
(g69
tp242
Rp243
ag21
(g69
tp244
Rp245
ag21
(g69
tp246
Rp247
ag21
(g69
tp248
Rp249
ag21
(g69
tp250
Rp251
ag21
(g69
tp252
Rp253
aI7
I01
tp254
Rp255
ag57
(g67
(lp256
g21
(g69
tp257
Rp258
ag21
(g69
tp259
Rp260
ag21
(g69
tp261
Rp262
ag21
(g69
tp263
Rp264
ag21
(g69
tp265
Rp266
ag21
(g69
tp267
Rp268
ag21
(g69
tp269
Rp270
aI7
I01
tp271
Rp272
ag57
(g67
(lp273
g21
(g69
tp274
Rp275
ag21
(g69
tp276
Rp277
ag21
(g69
tp278
Rp279
ag21
(g69
tp280
Rp281
ag21
(g69
tp282
Rp283
ag21
(g69
tp284
Rp285
ag21
(g69
tp286
Rp287
aI7
I01
tp288
Rp289
ag57
(g67
(lp290
g21
(g69
tp291
Rp292
ag21
(g69
tp293
Rp294
ag21
(g69
tp295
Rp296
ag21
(g69
tp297
Rp298
ag21
(g69
tp299
Rp300
ag21
(g69
tp301
Rp302
ag21
(g69
tp303
Rp304
aI7
I01
tp305
Rp306
ag57
(g67
(lp307
g21
(g69
tp308
Rp309
ag21
(g69
tp310
Rp311
ag21
(g69
tp312
Rp313
ag21
(g69
tp314
Rp315
ag21
(g69
tp316
Rp317
ag21
(g69
tp318
Rp319
ag21
(g69
tp320
Rp321
aI7
I01
tp322
Rp323
ag57
(g67
(lp324
g21
(g69
tp325
Rp326
ag21
(g69
tp327
Rp328
ag21
(g69
tp329
Rp330
ag21
(g69
tp331
Rp332
ag21
(g69
tp333
Rp334
ag21
(g69
tp335
Rp336
ag21
(g69
tp337
Rp338
aI7
I01
tp339
Rp340
ag57
(g67
(lp341
g21
(g69
tp342
Rp343
ag21
(g69
tp344
Rp345
ag21
(g69
tp346
Rp347
ag21
(g69
tp348
Rp349
ag21
(g69
tp350
Rp351
ag21
(g69
tp352
Rp353
ag21
(g69
tp354
Rp355
aI7
I01
tp356
Rp357
ag57
(g67
(lp358
g21
(g69
tp359
Rp360
ag21
(g69
tp361
Rp362
ag21
(g69
tp363
Rp364
ag21
(g69
tp365
Rp366
ag21
(g69
tp367
Rp368
ag21
(g69
tp369
Rp370
ag21
(g69
tp371
Rp372
aI7
I01
tp373
Rp374
ag57
(g67
(lp375
g21
(g69
tp376
Rp377
ag21
(g69
tp378
Rp379
ag21
(g69
tp380
Rp381
ag21
(g69
tp382
Rp383
ag21
(g69
tp384
Rp385
ag21
(g69
tp386
Rp387
ag21
(g69
tp388
Rp389
aI7
I01
tp390
Rp391
ag57
(g67
(lp392
g21
(g69
tp393
Rp394
ag21
(g69
tp395
Rp396
ag21
(g69
tp397
Rp398
ag21
(g69
tp399
Rp400
ag21
(g69
tp401
Rp402
ag21
(g69
tp403
Rp404
ag21
(g69
tp405
Rp406
aI7
I01
tp407
Rp408
a(lp409
g57
(g67
(lp410
g21
(S'45'
p411
tp412
Rp413
ag21
(S'2g'
p414
tp415
Rp416
ag21
(S'17'
p417
tp418
Rp419
ag21
(S'45'
p420
tp421
Rp422
ag21
(S'2g'
p423
tp424
Rp425
ag21
(S'17'
p426
tp427
Rp428
ag21
(S'u'
p429
tp430
Rp431
aI7
I01
tp432
Rp433
ag57
(g67
(lp434
g21
(S'45'
p435
tp436
Rp437
ag21
(S'2g'
p438
tp439
Rp440
ag21
(S'17'
p441
tp442
Rp443
ag21
(S'45'
p444
tp445
Rp446
ag21
(S'2g'
p447
tp448
Rp449
ag21
(S'17'
p450
tp451
Rp452
ag21
(g429
tp453
Rp454
aI7
I01
tp455
Rp456
ag57
(g67
(lp457
g21
(S'45'
p458
tp459
Rp460
ag21
(S'2g'
p461
tp462
Rp463
ag21
(S'17'
p464
tp465
Rp466
ag21
(S'45'
p467
tp468
Rp469
ag21
(S'2g'
p470
tp471
Rp472
ag21
(S'17'
p473
tp474
Rp475
ag21
(S'1g'
p476
tp477
Rp478
aI7
I01
tp479
Rp480
ag57
(g67
(lp481
g21
(S'45'
p482
tp483
Rp484
ag21
(S'2g'
p485
tp486
Rp487
ag21
(S'17'
p488
tp489
Rp490
ag21
(S'45'
p491
tp492
Rp493
ag21
(S'2g'
p494
tp495
Rp496
ag21
(S'17'
p497
tp498
Rp499
ag21
(S'18'
p500
tp501
Rp502
aI7
I01
tp503
Rp504
ag57
(g67
(lp505
g21
(S'45'
p506
tp507
Rp508
ag21
(S'2g'
p509
tp510
Rp511
ag21
(S'17'
p512
tp513
Rp514
ag21
(S'45'
p515
tp516
Rp517
ag21
(S'2g'
p518
tp519
Rp520
ag21
(S'17'
p521
tp522
Rp523
ag21
(S'12'
p524
tp525
Rp526
aI7
I01
tp527
Rp528
ag57
(g67
(lp529
g21
(S'45'
p530
tp531
Rp532
ag21
(S'2g'
p533
tp534
Rp535
ag21
(S'17'
p536
tp537
Rp538
ag21
(S'45'
p539
tp540
Rp541
ag21
(S'2g'
p542
tp543
Rp544
ag21
(S'17'
p545
tp546
Rp547
ag21
(S'18'
p548
tp549
Rp550
aI7
I01
tp551
Rp552
ag57
(g67
(lp553
g21
(S'45'
p554
tp555
Rp556
ag21
(S'2g'
p557
tp558
Rp559
ag21
(S'17'
p560
tp561
Rp562
ag21
(S'45'
p563
tp564
Rp565
ag21
(S'2g'
p566
tp567
Rp568
ag21
(S'17'
p569
tp570
Rp571
ag21
(S'19'
p572
tp573
Rp574
aI7
I01
tp575
Rp576
ag57
(g67
(lp577
g21
(S'45'
p578
tp579
Rp580
ag21
(S'2g'
p581
tp582
Rp583
ag21
(S'17'
p584
tp585
Rp586
ag21
(S'45'
p587
tp588
Rp589
ag21
(S'2g'
p590
tp591
Rp592
ag21
(S'17'
p593
tp594
Rp595
ag21
(S'1i'
p596
tp597
Rp598
aI7
I01
tp599
Rp600
ag57
(g67
(lp601
g21
(S'45'
p602
tp603
Rp604
ag21
(S'2g'
p605
tp606
Rp607
ag21
(S'17'
p608
tp609
Rp610
ag21
(S'45'
p611
tp612
Rp613
ag21
(S'2g'
p614
tp615
Rp616
ag21
(S'17'
p617
tp618
Rp619
ag21
(S'1g'
p620
tp621
Rp622
aI7
I01
tp623
Rp624
ag57
(g67
(lp625
g21
(S'45'
p626
tp627
Rp628
ag21
(S'2g'
p629
tp630
Rp631
ag21
(S'17'
p632
tp633
Rp634
ag21
(S'45'
p635
tp636
Rp637
ag21
(S'2g'
p638
tp639
Rp640
ag21
(S'17'
p641
tp642
Rp643
ag21
(S'19'
p644
tp645
Rp646
aI7
I01
tp647
Rp648
ag57
(g67
(lp649
g21
(S'45'
p650
tp651
Rp652
ag21
(S'2g'
p653
tp654
Rp655
ag21
(S'17'
p656
tp657
Rp658
ag21
(S'45'
p659
tp660
Rp661
ag21
(S'2g'
p662
tp663
Rp664
ag21
(S'17'
p665
tp666
Rp667
ag21
(S'v'
p668
tp669
Rp670
aI7
I01
tp671
Rp672
ag57
(g67
(lp673
g21
(S'45'
p674
tp675
Rp676
ag21
(S'2g'
p677
tp678
Rp679
ag21
(S'17'
p680
tp681
Rp682
ag21
(S'45'
p683
tp684
Rp685
ag21
(S'2g'
p686
tp687
Rp688
ag21
(S'17'
p689
tp690
Rp691
ag21
(S'1a'
p692
tp693
Rp694
aI7
I01
tp695
Rp696
ag57
(g67
(lp697
g21
(S'45'
p698
tp699
Rp700
ag21
(S'2g'
p701
tp702
Rp703
ag21
(S'17'
p704
tp705
Rp706
ag21
(S'45'
p707
tp708
Rp709
ag21
(S'2g'
p710
tp711
Rp712
ag21
(S'17'
p713
tp714
Rp715
ag21
(S'18'
p716
tp717
Rp718
aI7
I01
tp719
Rp720
ag57
(g67
(lp721
g21
(S'45'
p722
tp723
Rp724
ag21
(S'2g'
p725
tp726
Rp727
ag21
(S'17'
p728
tp729
Rp730
ag21
(S'45'
p731
tp732
Rp733
ag21
(S'2g'
p734
tp735
Rp736
ag21
(S'17'
p737
tp738
Rp739
ag21
(S'1a'
p740
tp741
Rp742
aI7
I01
tp743
Rp744
ag57
(g67
(lp745
g21
(S'45'
p746
tp747
Rp748
ag21
(S'2g'
p749
tp750
Rp751
ag21
(S'17'
p752
tp753
Rp754
ag21
(S'45'
p755
tp756
Rp757
ag21
(S'2g'
p758
tp759
Rp760
ag21
(S'17'
p761
tp762
Rp763
ag21
(S'11'
p764
tp765
Rp766
aI7
I01
tp767
Rp768
ag57
(g67
(lp769
g21
(S'45'
p770
tp771
Rp772
ag21
(S'2g'
p773
tp774
Rp775
ag21
(S'17'
p776
tp777
Rp778
ag21
(S'45'
p779
tp780
Rp781
ag21
(S'2g'
p782
tp783
Rp784
ag21
(S'17'
p785
tp786
Rp787
ag21
(S't'
p788
tp789
Rp790
aI7
I01
tp791
Rp792
ag57
(g67
(lp793
g21
(S'45'
p794
tp795
Rp796
ag21
(S'2g'
p797
tp798
Rp799
ag21
(S'17'
p800
tp801
Rp802
ag21
(S'45'
p803
tp804
Rp805
ag21
(S'2g'
p806
tp807
Rp808
ag21
(S'17'
p809
tp810
Rp811
ag21
(S'r'
p812
tp813
Rp814
aI7
I01
tp815
Rp816
ag57
(g67
(lp817
g21
(S'45'
p818
tp819
Rp820
ag21
(S'2g'
p821
tp822
Rp823
ag21
(S'17'
p824
tp825
Rp826
ag21
(S'45'
p827
tp828
Rp829
ag21
(S'2g'
p830
tp831
Rp832
ag21
(S'17'
p833
tp834
Rp835
ag21
(S'1c'
p836
tp837
Rp838
aI7
I01
tp839
Rp840
ag57
(g67
(lp841
g21
(S'45'
p842
tp843
Rp844
ag21
(S'2g'
p845
tp846
Rp847
ag21
(S'17'
p848
tp849
Rp850
ag21
(S'45'
p851
tp852
Rp853
ag21
(S'2g'
p854
tp855
Rp856
ag21
(S'17'
p857
tp858
Rp859
ag21
(S'1d'
p860
tp861
Rp862
aI7
I01
tp863
Rp864
ag57
(g67
(lp865
g21
(S'45'
p866
tp867
Rp868
ag21
(S'2g'
p869
tp870
Rp871
ag21
(S'17'
p872
tp873
Rp874
ag21
(S'45'
p875
tp876
Rp877
ag21
(S'2g'
p878
tp879
Rp880
ag21
(S'17'
p881
tp882
Rp883
ag21
(g668
tp884
Rp885
aI7
I01
tp886
Rp887
a(lp888
g57
(g67
(lp889
g21
(g69
tp890
Rp891
ag21
(g69
tp892
Rp893
ag21
(g69
tp894
Rp895
ag21
(S'1'
p896
tp897
Rp898
ag21
(S'4'
p899
tp900
Rp901
ag21
(S'7'
p902
tp903
Rp904
ag21
(g69
tp905
Rp906
aI7
I01
tp907
Rp908
ag57
(g67
(lp909
g21
(g69
tp910
Rp911
ag21
(g69
tp912
Rp913
ag21
(g69
tp914
Rp915
ag21
(g896
tp916
Rp917
ag21
(g899
tp918
Rp919
ag21
(g902
tp920
Rp921
ag21
(g69
tp922
Rp923
aI7
I01
tp924
Rp925
ag57
(g67
(lp926
g21
(g69
tp927
Rp928
ag21
(g69
tp929
Rp930
ag21
(g69
tp931
Rp932
ag21
(g896
tp933
Rp934
ag21
(g899
tp935
Rp936
ag21
(g902
tp937
Rp938
ag21
(g69
tp939
Rp940
aI7
I01
tp941
Rp942
ag57
(g67
(lp943
g21
(g69
tp944
Rp945
ag21
(g69
tp946
Rp947
ag21
(g69
tp948
Rp949
ag21
(g896
tp950
Rp951
ag21
(g899
tp952
Rp953
ag21
(g902
tp954
Rp955
ag21
(g69
tp956
Rp957
aI7
I01
tp958
Rp959
ag57
(g67
(lp960
g21
(g69
tp961
Rp962
ag21
(g69
tp963
Rp964
ag21
(g69
tp965
Rp966
ag21
(g896
tp967
Rp968
ag21
(g899
tp969
Rp970
ag21
(g902
tp971
Rp972
ag21
(g69
tp973
Rp974
aI7
I01
tp975
Rp976
ag57
(g67
(lp977
g21
(g69
tp978
Rp979
ag21
(g69
tp980
Rp981
ag21
(g69
tp982
Rp983
ag21
(g896
tp984
Rp985
ag21
(g899
tp986
Rp987
ag21
(g902
tp988
Rp989
ag21
(g69
tp990
Rp991
aI7
I01
tp992
Rp993
ag57
(g67
(lp994
g21
(g69
tp995
Rp996
ag21
(g69
tp997
Rp998
ag21
(g69
tp999
Rp1000
ag21
(g896
tp1001
Rp1002
ag21
(g899
tp1003
Rp1004
ag21
(g902
tp1005
Rp1006
ag21
(g69
tp1007
Rp1008
aI7
I01
tp1009
Rp1010
ag57
(g67
(lp1011
g21
(g69
tp1012
Rp1013
ag21
(g69
tp1014
Rp1015
ag21
(g69
tp1016
Rp1017
ag21
(g896
tp1018
Rp1019
ag21
(g899
tp1020
Rp1021
ag21
(g902
tp1022
Rp1023
ag21
(g69
tp1024
Rp1025
aI7
I01
tp1026
Rp1027
ag57
(g67
(lp1028
g21
(g69
tp1029
Rp1030
ag21
(g69
tp1031
Rp1032
ag21
(g69
tp1033
Rp1034
ag21
(g896
tp1035
Rp1036
ag21
(g899
tp1037
Rp1038
ag21
(g902
tp1039
Rp1040
ag21
(g69
tp1041
Rp1042
aI7
I01
tp1043
Rp1044
ag57
(g67
(lp1045
g21
(g69
tp1046
Rp1047
ag21
(g69
tp1048
Rp1049
ag21
(g69
tp1050
Rp1051
ag21
(g896
tp1052
Rp1053
ag21
(g899
tp1054
Rp1055
ag21
(g902
tp1056
Rp1057
ag21
(g69
tp1058
Rp1059
aI7
I01
tp1060
Rp1061
ag57
(g67
(lp1062
g21
(g69
tp1063
Rp1064
ag21
(g69
tp1065
Rp1066
ag21
(g69
tp1067
Rp1068
ag21
(g896
tp1069
Rp1070
ag21
(g899
tp1071
Rp1072
ag21
(g902
tp1073
Rp1074
ag21
(g69
tp1075
Rp1076
aI7
I01
tp1077
Rp1078
ag57
(g67
(lp1079
g21
(g69
tp1080
Rp1081
ag21
(g69
tp1082
Rp1083
ag21
(g69
tp1084
Rp1085
ag21
(g896
tp1086
Rp1087
ag21
(g899
tp1088
Rp1089
ag21
(g902
tp1090
Rp1091
ag21
(g69
tp1092
Rp1093
aI7
I01
tp1094
Rp1095
ag57
(g67
(lp1096
g21
(g69
tp1097
Rp1098
ag21
(g69
tp1099
Rp1100
ag21
(g69
tp1101
Rp1102
ag21
(g896
tp1103
Rp1104
ag21
(g899
tp1105
Rp1106
ag21
(g902
tp1107
Rp1108
ag21
(g69
tp1109
Rp1110
aI7
I01
tp1111
Rp1112
ag57
(g67
(lp1113
g21
(g69
tp1114
Rp1115
ag21
(g69
tp1116
Rp1117
ag21
(g69
tp1118
Rp1119
ag21
(g896
tp1120
Rp1121
ag21
(g899
tp1122
Rp1123
ag21
(g902
tp1124
Rp1125
ag21
(g69
tp1126
Rp1127
aI7
I01
tp1128
Rp1129
ag57
(g67
(lp1130
g21
(g69
tp1131
Rp1132
ag21
(g69
tp1133
Rp1134
ag21
(g69
tp1135
Rp1136
ag21
(g896
tp1137
Rp1138
ag21
(g899
tp1139
Rp1140
ag21
(g902
tp1141
Rp1142
ag21
(g69
tp1143
Rp1144
aI7
I01
tp1145
Rp1146
ag57
(g67
(lp1147
g21
(g69
tp1148
Rp1149
ag21
(g69
tp1150
Rp1151
ag21
(g69
tp1152
Rp1153
ag21
(g896
tp1154
Rp1155
ag21
(g899
tp1156
Rp1157
ag21
(g902
tp1158
Rp1159
ag21
(g69
tp1160
Rp1161
aI7
I01
tp1162
Rp1163
ag57
(g67
(lp1164
g21
(g69
tp1165
Rp1166
ag21
(g69
tp1167
Rp1168
ag21
(g69
tp1169
Rp1170
ag21
(g896
tp1171
Rp1172
ag21
(g899
tp1173
Rp1174
ag21
(g902
tp1175
Rp1176
ag21
(g69
tp1177
Rp1178
aI7
I01
tp1179
Rp1180
ag57
(g67
(lp1181
g21
(g69
tp1182
Rp1183
ag21
(g69
tp1184
Rp1185
ag21
(g69
tp1186
Rp1187
ag21
(g896
tp1188
Rp1189
ag21
(g899
tp1190
Rp1191
ag21
(g902
tp1192
Rp1193
ag21
(g69
tp1194
Rp1195
aI7
I01
tp1196
Rp1197
ag57
(g67
(lp1198
g21
(g69
tp1199
Rp1200
ag21
(g69
tp1201
Rp1202
ag21
(g69
tp1203
Rp1204
ag21
(g896
tp1205
Rp1206
ag21
(g899
tp1207
Rp1208
ag21
(g902
tp1209
Rp1210
ag21
(g69
tp1211
Rp1212
aI7
I01
tp1213
Rp1214
ag57
(g67
(lp1215
g21
(g69
tp1216
Rp1217
ag21
(g69
tp1218
Rp1219
ag21
(g69
tp1220
Rp1221
ag21
(g896
tp1222
Rp1223
ag21
(g899
tp1224
Rp1225
ag21
(g902
tp1226
Rp1227
ag21
(g69
tp1228
Rp1229
aI7
I01
tp1230
Rp1231
a(lp1232
g57
(g67
(lp1233
g21
(g69
tp1234
Rp1235
ag21
(g69
tp1236
Rp1237
ag21
(g69
tp1238
Rp1239
ag21
(S'45'
p1240
tp1241
Rp1242
ag21
(S'2g'
p1243
tp1244
Rp1245
ag21
(S'17'
p1246
tp1247
Rp1248
ag21
(g429
tp1249
Rp1250
aI7
I01
tp1251
Rp1252
ag57
(g67
(lp1253
g21
(g69
tp1254
Rp1255
ag21
(g69
tp1256
Rp1257
ag21
(g69
tp1258
Rp1259
ag21
(g69
tp1260
Rp1261
ag21
(g69
tp1262
Rp1263
ag21
(g69
tp1264
Rp1265
ag21
(g429
tp1266
Rp1267
aI7
I01
tp1268
Rp1269
ag57
(g67
(lp1270
g21
(g69
tp1271
Rp1272
ag21
(g69
tp1273
Rp1274
ag21
(g69
tp1275
Rp1276
ag21
(g69
tp1277
Rp1278
ag21
(g69
tp1279
Rp1280
ag21
(g69
tp1281
Rp1282
ag21
(S'1g'
p1283
tp1284
Rp1285
aI7
I01
tp1286
Rp1287
ag57
(g67
(lp1288
g21
(g69
tp1289
Rp1290
ag21
(g69
tp1291
Rp1292
ag21
(g69
tp1293
Rp1294
ag21
(g69
tp1295
Rp1296
ag21
(g69
tp1297
Rp1298
ag21
(g69
tp1299
Rp1300
ag21
(S'18'
p1301
tp1302
Rp1303
aI7
I01
tp1304
Rp1305
ag57
(g67
(lp1306
g21
(g69
tp1307
Rp1308
ag21
(g69
tp1309
Rp1310
ag21
(g69
tp1311
Rp1312
ag21
(g69
tp1313
Rp1314
ag21
(g69
tp1315
Rp1316
ag21
(g69
tp1317
Rp1318
ag21
(S'12'
p1319
tp1320
Rp1321
aI7
I01
tp1322
Rp1323
ag57
(g67
(lp1324
g21
(g69
tp1325
Rp1326
ag21
(g69
tp1327
Rp1328
ag21
(g69
tp1329
Rp1330
ag21
(g69
tp1331
Rp1332
ag21
(g69
tp1333
Rp1334
ag21
(g69
tp1335
Rp1336
ag21
(S'18'
p1337
tp1338
Rp1339
aI7
I01
tp1340
Rp1341
ag57
(g67
(lp1342
g21
(g69
tp1343
Rp1344
ag21
(g69
tp1345
Rp1346
ag21
(g69
tp1347
Rp1348
ag21
(g69
tp1349
Rp1350
ag21
(g69
tp1351
Rp1352
ag21
(g69
tp1353
Rp1354
ag21
(S'19'
p1355
tp1356
Rp1357
aI7
I01
tp1358
Rp1359
ag57
(g67
(lp1360
g21
(g69
tp1361
Rp1362
ag21
(g69
tp1363
Rp1364
ag21
(g69
tp1365
Rp1366
ag21
(g69
tp1367
Rp1368
ag21
(g69
tp1369
Rp1370
ag21
(g69
tp1371
Rp1372
ag21
(S'1i'
p1373
tp1374
Rp1375
aI7
I01
tp1376
Rp1377
ag57
(g67
(lp1378
g21
(g69
tp1379
Rp1380
ag21
(g69
tp1381
Rp1382
ag21
(g69
tp1383
Rp1384
ag21
(g69
tp1385
Rp1386
ag21
(g69
tp1387
Rp1388
ag21
(g69
tp1389
Rp1390
ag21
(S'1g'
p1391
tp1392
Rp1393
aI7
I01
tp1394
Rp1395
ag57
(g67
(lp1396
g21
(g69
tp1397
Rp1398
ag21
(g69
tp1399
Rp1400
ag21
(g69
tp1401
Rp1402
ag21
(g69
tp1403
Rp1404
ag21
(g69
tp1405
Rp1406
ag21
(g69
tp1407
Rp1408
ag21
(S'19'
p1409
tp1410
Rp1411
aI7
I01
tp1412
Rp1413
ag57
(g67
(lp1414
g21
(g69
tp1415
Rp1416
ag21
(g69
tp1417
Rp1418
ag21
(g69
tp1419
Rp1420
ag21
(g69
tp1421
Rp1422
ag21
(g69
tp1423
Rp1424
ag21
(g69
tp1425
Rp1426
ag21
(g668
tp1427
Rp1428
aI7
I01
tp1429
Rp1430
ag57
(g67
(lp1431
g21
(g69
tp1432
Rp1433
ag21
(g69
tp1434
Rp1435
ag21
(g69
tp1436
Rp1437
ag21
(g69
tp1438
Rp1439
ag21
(g69
tp1440
Rp1441
ag21
(g69
tp1442
Rp1443
ag21
(S'1a'
p1444
tp1445
Rp1446
aI7
I01
tp1447
Rp1448
ag57
(g67
(lp1449
g21
(g69
tp1450
Rp1451
ag21
(g69
tp1452
Rp1453
ag21
(g69
tp1454
Rp1455
ag21
(g69
tp1456
Rp1457
ag21
(g69
tp1458
Rp1459
ag21
(g69
tp1460
Rp1461
ag21
(S'18'
p1462
tp1463
Rp1464
aI7
I01
tp1465
Rp1466
ag57
(g67
(lp1467
g21
(g69
tp1468
Rp1469
ag21
(g69
tp1470
Rp1471
ag21
(g69
tp1472
Rp1473
ag21
(g69
tp1474
Rp1475
ag21
(g69
tp1476
Rp1477
ag21
(g69
tp1478
Rp1479
ag21
(S'1a'
p1480
tp1481
Rp1482
aI7
I01
tp1483
Rp1484
ag57
(g67
(lp1485
g21
(g69
tp1486
Rp1487
ag21
(g69
tp1488
Rp1489
ag21
(g69
tp1490
Rp1491
ag21
(g69
tp1492
Rp1493
ag21
(g69
tp1494
Rp1495
ag21
(g69
tp1496
Rp1497
ag21
(S'11'
p1498
tp1499
Rp1500
aI7
I01
tp1501
Rp1502
ag57
(g67
(lp1503
g21
(g69
tp1504
Rp1505
ag21
(g69
tp1506
Rp1507
ag21
(g69
tp1508
Rp1509
ag21
(g69
tp1510
Rp1511
ag21
(g69
tp1512
Rp1513
ag21
(g69
tp1514
Rp1515
ag21
(g788
tp1516
Rp1517
aI7
I01
tp1518
Rp1519
ag57
(g67
(lp1520
g21
(g69
tp1521
Rp1522
ag21
(g69
tp1523
Rp1524
ag21
(g69
tp1525
Rp1526
ag21
(g69
tp1527
Rp1528
ag21
(g69
tp1529
Rp1530
ag21
(g69
tp1531
Rp1532
ag21
(g812
tp1533
Rp1534
aI7
I01
tp1535
Rp1536
ag57
(g67
(lp1537
g21
(g69
tp1538
Rp1539
ag21
(g69
tp1540
Rp1541
ag21
(g69
tp1542
Rp1543
ag21
(g69
tp1544
Rp1545
ag21
(g69
tp1546
Rp1547
ag21
(g69
tp1548
Rp1549
ag21
(S'1c'
p1550
tp1551
Rp1552
aI7
I01
tp1553
Rp1554
ag57
(g67
(lp1555
g21
(g69
tp1556
Rp1557
ag21
(g69
tp1558
Rp1559
ag21
(g69
tp1560
Rp1561
ag21
(g69
tp1562
Rp1563
ag21
(g69
tp1564
Rp1565
ag21
(g69
tp1566
Rp1567
ag21
(S'1d'
p1568
tp1569
Rp1570
aI7
I01
tp1571
Rp1572
ag57
(g67
(lp1573
g21
(g69
tp1574
Rp1575
ag21
(g69
tp1576
Rp1577
ag21
(g69
tp1578
Rp1579
ag21
(g69
tp1580
Rp1581
ag21
(g69
tp1582
Rp1583
ag21
(g69
tp1584
Rp1585
ag21
(g668
tp1586
Rp1587
aI7
I01
tp1588
Rp1589
atp1590
.