(csage.matrix.matrix0
unpickle
p0
(csage.matrix.matrix_integer_dense
Matrix_integer_dense
p1
csage.structure.unique_representation
unreduce
p2
(csage.matrix.matrix_space
MatrixSpace
p3
(csage.rings.integer_ring
IntegerRing
p4
(tRp5
I1
I9
I00
S'flint'
p6
tp7
(dp8
tp9
Rp10
I00
NS'2 3 7 d 0 0 0 0 1'
p11
I0
tp12
Rp13
g0
(g1
g2
(g3
(g5
I4
I9
I00
g6
tp14
(dp15
tp16
Rp17
I00
NS'1 0 0 0 1 0 0 0 0 0 1 0 0 0 1 0 0 0 0 0 1 0 0 0 1 0 0 0 0 0 1 0 0 0 1 0'
p18
I0
tp19
Rp20
csage.rings.integer
make_integer
p21
(S'u'
p22
tp23
Rp24
(lp25
(g21
(S'10r'
p26
tp27
Rp28
g21
(S'pd'
p29
tp30
Rp31
g21
(S'4q'
p32
tp33
Rp34
g21
(S'8p'
p35
tp36
Rp37
tp38
a(I335
tp39
a(I287
tp40
a(I132
tp41
a(I472
tp42
a(I416
tp43
a(I399
tp44
a(I233
tp45
a(I478
tp46
a(I182
tp47
a(I239
tp48
a(I232
tp49
a(I356
tp50
a(I214
tp51
a(I437
tp52
a(I162
tp53
a(I110
tp54
a(I214
tp55
a(I291
tp56
a(I189
tp57
a(I355
tp58
a(I120
tp59
a(I454
tp60
a(I379
tp61
a(I456
tp62
a(I467
tp63
a(I272
tp64
a(I473
tp65
a(I449
tp66
a(I387
tp67
a(I272
tp68
a(lp69
csage.modules.vector_integer_dense
unpickle_v1
p70
(csage.structure.factory
generic_factory_unpickle
p71
(csage.structure.factory
lookup_global
p72
(S'FreeModule'
p73
tp74
Rp75
(I7
I6
tp76
(g5
I9
I00
Ntp77
(dp78
tp79
Rp80
(lp81
g21
(S'0'
p82
tp83
Rp84
ag21
(g82
tp85
Rp86
ag21
(g82
tp87
Rp88
ag21
(g82
tp89
Rp90
ag21
(g82
tp91
Rp92
ag21
(g82
tp93
Rp94
ag21
(g82
tp95
Rp96
ag21
(g82
tp97
Rp98
ag21
(g82
tp99
Rp100
aI9
I01
tp101
Rp102
ag70
(g80
(lp103
g21
(g82
tp104
Rp105
ag21
(g82
tp106
Rp107
ag21
(g82
tp108
Rp109
ag21
(g82
tp110
Rp111
ag21
(g82
tp112
Rp113
ag21
(g82
tp114
Rp115
ag21
(g82
tp116
Rp117
ag21
(g82
tp118
Rp119
ag21
(g82
tp120
Rp121
aI9
I01
tp122
Rp123
ag70
(g80
(lp124
g21
(g82
tp125
Rp126
ag21
(g82
tp127
Rp128
ag21
(g82
tp129
Rp130
ag21
(g82
tp131
Rp132
ag21
(g82
tp133
Rp134
ag21
(g82
tp135
Rp136
ag21
(g82
tp137
Rp138
ag21
(g82
tp139
Rp140
ag21
(g82
tp141
Rp142
aI9
I01
tp143
Rp144
ag70
(g80
(lp145
g21
(g82
tp146
Rp147
ag21
(g82
tp148
Rp149
ag21
(g82
tp150
Rp151
ag21
(g82
tp152
Rp153
ag21
(g82
tp154
Rp155
ag21
(g82
tp156
Rp157
ag21
(g82
tp158
Rp159
ag21
(g82
tp160
Rp161
ag21
(g82
tp162
Rp163
aI9
I01
tp164
Rp165
ag70
(g80
(lp166
g21
(g82
tp167
Rp168
ag21
(g82
tp169
Rp170
ag21
(g82
tp171
Rp172
ag21
(g82
tp173
Rp174
ag21
(g82
tp175
Rp176
ag21
(g82
tp177
Rp178
ag21
(g82
tp179
Rp180
ag21
(g82
tp181
Rp182
ag21
(g82
tp183
Rp184
aI9
I01
tp185
Rp186
ag70
(g80
(lp187
g21
(g82
tp188
Rp189
ag21
(g82
tp190
Rp191
ag21
(g82
tp192
Rp193
ag21
(g82
tp194
Rp195
ag21
(g82
tp196
Rp197
ag21
(g82
tp198
Rp199
ag21
(g82
tp200
Rp201
ag21
(g82
tp202
Rp203
ag21
(g82
tp204
Rp205
aI9
I01
tp206
Rp207
ag70
(g80
(lp208
g21
(g82
tp209
Rp210
ag21
(g82
tp211
Rp212
ag21
(g82
tp213
Rp214
ag21
(g82
tp215
Rp216
ag21
(g82
tp217
Rp218
ag21
(g82
tp219
Rp220
ag21
(g82
tp221
Rp222
ag21
(g82
tp223
Rp224
ag21
(g82
tp225
Rp226
aI9
I01
tp227
Rp228
ag70
(g80
(lp229
g21
(g82
tp230
Rp231
ag21
(g82
tp232
Rp233
ag21
(g82
tp234
Rp235
ag21
(g82
tp236
Rp237
ag21
(g82
tp238
Rp239
ag21
(g82
tp240
Rp241
ag21
(g82
tp242
Rp243
ag21
(g82
tp244
Rp245
ag21
(g82
tp246
Rp247
aI9
I01
tp248
Rp249
ag70
(g80
(lp250
g21
(g82
tp251
Rp252
ag21
(g82
tp253
Rp254
ag21
(g82
tp255
Rp256
ag21
(g82
tp257
Rp258
ag21
(g82
tp259
Rp260
ag21
(g82
tp261
Rp262
ag21
(g82
tp263
Rp264
ag21
(g82
tp265
Rp266
ag21
(g82
tp267
Rp268
aI9
I01
tp269
Rp270
ag70
(g80
(lp271
g21
(g82
tp272
Rp273
ag21
(g82
tp274
Rp275
ag21
(g82
tp276
Rp277
ag21
(g82
tp278
Rp279
ag21
(g82
tp280
Rp281
ag21
(g82
tp282
Rp283
ag21
(g82
tp284
Rp285
ag21
(g82
tp286
Rp287
ag21
(g82
tp288
Rp289
aI9
I01
tp290
Rp291
ag70
(g80
(lp292
g21
(g82
tp293
Rp294
ag21
(g82
tp295
Rp296
ag21
(g82
tp297
Rp298
ag21
(g82
tp299
Rp300
ag21
(g82
tp301
Rp302
ag21
(g82
tp303
Rp304
ag21
(g82
tp305
Rp306
ag21
(g82
tp307
Rp308
ag21
(g82
tp309
Rp310
aI9
I01
tp311
Rp312
ag70
(g80
(lp313
g21
(g82
tp314
Rp315
ag21
(g82
tp316
Rp317
ag21
(g82
tp318
Rp319
ag21
(g82
tp320
Rp321
ag21
(g82
tp322
Rp323
ag21
(g82
tp324
Rp325
ag21
(g82
tp326
Rp327
ag21
(g82
tp328
Rp329
ag21
(g82
tp330
Rp331
aI9
I01
tp332
Rp333
ag70
(g80
(lp334
g21
(g82
tp335
Rp336
ag21
(g82
tp337
Rp338
ag21
(g82
tp339
Rp340
ag21
(g82
tp341
Rp342
ag21
(g82
tp343
Rp344
ag21
(g82
tp345
Rp346
ag21
(g82
tp347
Rp348
ag21
(g82
tp349
Rp350
ag21
(g82
tp351
Rp352
aI9
I01
tp353
Rp354
ag70
(g80
(lp355
g21
(g82
tp356
Rp357
ag21
(g82
tp358
Rp359
ag21
(g82
tp360
Rp361
ag21
(g82
tp362
Rp363
ag21
(g82
tp364
Rp365
ag21
(g82
tp366
Rp367
ag21
(g82
tp368
Rp369
ag21
(g82
tp370
Rp371
ag21
(g82
tp372
Rp373
aI9
I01
tp374
Rp375
ag70
(g80
(lp376
g21
(g82
tp377
Rp378
ag21
(g82
tp379
Rp380
ag21
(g82
tp381
Rp382
ag21
(g82
tp383
Rp384
ag21
(g82
tp385
Rp386
ag21
(g82
tp387
Rp388
ag21
(g82
tp389
Rp390
ag21
(g82
tp391
Rp392
ag21
(g82
tp393
Rp394
aI9
I01
tp395
Rp396
ag70
(g80
(lp397
g21
(g82
tp398
Rp399
ag21
(g82
tp400
Rp401
ag21
(g82
tp402
Rp403
ag21
(g82
tp404
Rp405
ag21
(g82
tp406
Rp407
ag21
(g82
tp408
Rp409
ag21
(g82
tp410
Rp411
ag21
(g82
tp412
Rp413
ag21
(g82
tp414
Rp415
aI9
I01
tp416
Rp417
ag70
(g80
(lp418
g21
(g82
tp419
Rp420
ag21
(g82
tp421
Rp422
ag21
(g82
tp423
Rp424
ag21
(g82
tp425
Rp426
ag21
(g82
tp427
Rp428
ag21
(g82
tp429
Rp430
ag21
(g82
tp431
Rp432
ag21
(g82
tp433
Rp434
ag21
(g82
tp435
Rp436
aI9
I01
tp437
Rp438
ag70
(g80
(lp439
g21
(g82
tp440
Rp441
ag21
(g82
tp442
Rp443
ag21
(g82
tp444
Rp445
ag21
(g82
tp446
Rp447
ag21
(g82
tp448
Rp449
ag21
(g82
tp450
Rp451
ag21
(g82
tp452
Rp453
ag21
(g82
tp454
Rp455
ag21
(g82
tp456
Rp457
aI9
I01
tp458
Rp459
ag70
(g80
(lp460
g21
(g82
tp461
Rp462
ag21
(g82
tp463
Rp464
ag21
(g82
tp465
Rp466
ag21
(g82
tp467
Rp468
ag21
(g82
tp469
Rp470
ag21
(g82
tp471
Rp472
ag21
(g82
tp473
Rp474
ag21
(g82
tp475
Rp476
ag21
(g82
tp477
Rp478
aI9
I01
tp479
Rp480
ag70
(g80
(lp481
g21
(g82
tp482
Rp483
ag21
(g82
tp484
Rp485
ag21
(g82
tp486
Rp487
ag21
(g82
tp488
Rp489
ag21
(g82
tp490
Rp491
ag21
(g82
tp492
Rp493
ag21
(g82
tp494
Rp495
ag21
(g82
tp496
Rp497
ag21
(g82
tp498
Rp499
aI9
I01
tp500
Rp501
ag70
(g80
(lp502
g21
(g82
tp503
Rp504
ag21
(g82
tp505
Rp506
ag21
(g82
tp507
Rp508
ag21
(g82
tp509
Rp510
ag21
(g82
tp511
Rp512
ag21
(g82
tp513
Rp514
ag21
(g82
tp515
Rp516
ag21
(g82
tp517
Rp518
ag21
(g82
tp519
Rp520
aI9
I01
tp521
Rp522
ag70
(g80
(lp523
g21
(g82
tp524
Rp525
ag21
(g82
tp526
Rp527
ag21
(g82
tp528
Rp529
ag21
(g82
tp530
Rp531
ag21
(g82
tp532
Rp533
ag21
(g82
tp534
Rp535
ag21
(g82
tp536
Rp537
ag21
(g82
tp538
Rp539
ag21
(g82
tp540
Rp541
aI9
I01
tp542
Rp543
ag70
(g80
(lp544
g21
(g82
tp545
Rp546
ag21
(g82
tp547
Rp548
ag21
(g82
tp549
Rp550
ag21
(g82
tp551
Rp552
ag21
(g82
tp553
Rp554
ag21
(g82
tp555
Rp556
ag21
(g82
tp557
Rp558
ag21
(g82
tp559
Rp560
ag21
(g82
tp561
Rp562
aI9
I01
tp563
Rp564
ag70
(g80
(lp565
g21
(g82
tp566
Rp567
ag21
(g82
tp568
Rp569
ag21
(g82
tp570
Rp571
ag21
(g82
tp572
Rp573
ag21
(g82
tp574
Rp575
ag21
(g82
tp576
Rp577
ag21
(g82
tp578
Rp579
ag21
(g82
tp580
Rp581
ag21
(g82
tp582
Rp583
aI9
I01
tp584
Rp585
ag70
(g80
(lp586
g21
(g82
tp587
Rp588
ag21
(g82
tp589
Rp590
ag21
(g82
tp591
Rp592
ag21
(g82
tp593
Rp594
ag21
(g82
tp595
Rp596
ag21
(g82
tp597
Rp598
ag21
(g82
tp599
Rp600
ag21
(g82
tp601
Rp602
ag21
(g82
tp603
Rp604
aI9
I01
tp605
Rp606
ag70
(g80
(lp607
g21
(g82
tp608
Rp609
ag21
(g82
tp610
Rp611
ag21
(g82
tp612
Rp613
ag21
(g82
tp614
Rp615
ag21
(g82
tp616
Rp617
ag21
(g82
tp618
Rp619
ag21
(g82
tp620
Rp621
ag21
(g82
tp622
Rp623
ag21
(g82
tp624
Rp625
aI9
I01
tp626
Rp627
ag70
(g80
(lp628
g21
(g82
tp629
Rp630
ag21
(g82
tp631
Rp632
ag21
(g82
tp633
Rp634
ag21
(g82
tp635
Rp636
ag21
(g82
tp637
Rp638
ag21
(g82
tp639
Rp640
ag21
(g82
tp641
Rp642
ag21
(g82
tp643
Rp644
ag21
(g82
tp645
Rp646
aI9
I01
tp647
Rp648
ag70
(g80
(lp649
g21
(g82
tp650
Rp651
ag21
(g82
tp652
Rp653
ag21
(g82
tp654
Rp655
ag21
(g82
tp656
Rp657
ag21
(g82
tp658
Rp659
ag21
(g82
tp660
Rp661
ag21
(g82
tp662
Rp663
ag21
(g82
tp664
Rp665
ag21
(g82
tp666
Rp667
aI9
I01
tp668
Rp669
ag70
(g80
(lp670
g21
(g82
tp671
Rp672
ag21
(g82
tp673
Rp674
ag21
(g82
tp675
Rp676
ag21
(g82
tp677
Rp678
ag21
(g82
tp679
Rp680
ag21
(g82
tp681
Rp682
ag21
(g82
tp683
Rp684
ag21
(g82
tp685
Rp686
ag21
(g82
tp687
Rp688
aI9
I01
tp689
Rp690
ag70
(g80
(lp691
g21
(g82
tp692
Rp693
ag21
(g82
tp694
Rp695
ag21
(g82
tp696
Rp697
ag21
(g82
tp698
Rp699
ag21
(g82
tp700
Rp701
ag21
(g82
tp702
Rp703
ag21
(g82
tp704
Rp705
ag21
(g82
tp706
Rp707
ag21
(g82
tp708
Rp709
aI9
I01
tp710
Rp711
a(lp712
g70
(g80
(lp713
g21
(S'10r'
p714
tp715
Rp716
ag21
(S'pd'
p717
tp718
Rp719
ag21
(S'4q'
p720
tp721
Rp722
ag21
(S'8p'
p723
tp724
Rp725
ag21
(S'10r'
p726
tp727
Rp728
ag21
(S'pd'
p729
tp730
Rp731
ag21
(S'4q'
p732
tp733
Rp734
ag21
(S'8p'
p735
tp736
Rp737
ag21
(S'af'
p738
tp739
Rp740
aI9
I01
tp741
Rp742
ag70
(g80
(lp743
g21
(S'10r'
p744
tp745
Rp746
ag21
(S'pd'
p747
tp748
Rp749
ag21
(S'4q'
p750
tp751
Rp752
ag21
(S'8p'
p753
tp754
Rp755
ag21
(S'10r'
p756
tp757
Rp758
ag21
(S'pd'
p759
tp760
Rp761
ag21
(S'4q'
p762
tp763
Rp764
ag21
(S'8p'
p765
tp766
Rp767
ag21
(S'8v'
p768
tp769
Rp770
aI9
I01
tp771
Rp772
ag70
(g80
(lp773
g21
(S'10r'
p774
tp775
Rp776
ag21
(S'pd'
p777
tp778
Rp779
ag21
(S'4q'
p780
tp781
Rp782
ag21
(S'8p'
p783
tp784
Rp785
ag21
(S'10r'
p786
tp787
Rp788
ag21
(S'pd'
p789
tp790
Rp791
ag21
(S'4q'
p792
tp793
Rp794
ag21
(S'8p'
p795
tp796
Rp797
ag21
(S'44'
p798
tp799
Rp800
aI9
I01
tp801
Rp802
ag70
(g80
(lp803
g21
(S'10r'
p804
tp805
Rp806
ag21
(S'pd'
p807
tp808
Rp809
ag21
(S'4q'
p810
tp811
Rp812
ag21
(S'8p'
p813
tp814
Rp815
ag21
(S'10r'
p816
tp817
Rp818
ag21
(S'pd'
p819
tp820
Rp821
ag21
(S'4q'
p822
tp823
Rp824
ag21
(S'8p'
p825
tp826
Rp827
ag21
(S'eo'
p828
tp829
Rp830
aI9
I01
tp831
Rp832
ag70
(g80
(lp833
g21
(S'10r'
p834
tp835
Rp836
ag21
(S'pd'
p837
tp838
Rp839
ag21
(S'4q'
p840
tp841
Rp842
ag21
(S'8p'
p843
tp844
Rp845
ag21
(S'10r'
p846
tp847
Rp848
ag21
(S'pd'
p849
tp850
Rp851
ag21
(S'4q'
p852
tp853
Rp854
ag21
(S'8p'
p855
tp856
Rp857
ag21
(S'd0'
p858
tp859
Rp860
aI9
I01
tp861
Rp862
ag70
(g80
(lp863
g21
(S'10r'
p864
tp865
Rp866
ag21
(S'pd'
p867
tp868
Rp869
ag21
(S'4q'
p870
tp871
Rp872
ag21
(S'8p'
p873
tp874
Rp875
ag21
(S'10r'
p876
tp877
Rp878
ag21
(S'pd'
p879
tp880
Rp881
ag21
(S'4q'
p882
tp883
Rp884
ag21
(S'8p'
p885
tp886
Rp887
ag21
(S'cf'
p888
tp889
Rp890
aI9
I01
tp891
Rp892
ag70
(g80
(lp893
g21
(S'10r'
p894
tp895
Rp896
ag21
(S'pd'
p897
tp898
Rp899
ag21
(S'4q'
p900
tp901
Rp902
ag21
(S'8p'
p903
tp904
Rp905
ag21
(S'10r'
p906
tp907
Rp908
ag21
(S'pd'
p909
tp910
Rp911
ag21
(S'4q'
p912
tp913
Rp914
ag21
(S'8p'
p915
tp916
Rp917
ag21
(S'79'
p918
tp919
Rp920
aI9
I01
tp921
Rp922
ag70
(g80
(lp923
g21
(S'10r'
p924
tp925
Rp926
ag21
(S'pd'
p927
tp928
Rp929
ag21
(S'4q'
p930
tp931
Rp932
ag21
(S'8p'
p933
tp934
Rp935
ag21
(S'10r'
p936
tp937
Rp938
ag21
(S'pd'
p939
tp940
Rp941
ag21
(S'4q'
p942
tp943
Rp944
ag21
(S'8p'
p945
tp946
Rp947
ag21
(S'eu'
p948
tp949
Rp950
aI9
I01
tp951
Rp952
ag70
(g80
(lp953
g21
(S'10r'
p954
tp955
Rp956
ag21
(S'pd'
p957
tp958
Rp959
ag21
(S'4q'
p960
tp961
Rp962
ag21
(S'8p'
p963
tp964
Rp965
ag21
(S'10r'
p966
tp967
Rp968
ag21
(S'pd'
p969
tp970
Rp971
ag21
(S'4q'
p972
tp973
Rp974
ag21
(S'8p'
p975
tp976
Rp977
ag21
(S'5m'
p978
tp979
Rp980
aI9
I01
tp981
Rp982
ag70
(g80
(lp983
g21
(S'10r'
p984
tp985
Rp986
ag21
(S'pd'
p987
tp988
Rp989
ag21
(S'4q'
p990
tp991
Rp992
ag21
(S'8p'
p993
tp994
Rp995
ag21
(S'10r'
p996
tp997
Rp998
ag21
(S'pd'
p999
tp1000
Rp1001
ag21
(S'4q'
p1002
tp1003
Rp1004
ag21
(S'8p'
p1005
tp1006
Rp1007
ag21
(S'7f'
p1008
tp1009
Rp1010
aI9
I01
tp1011
Rp1012
ag70
(g80
(lp1013
g21
(S'10r'
p1014
tp1015
Rp1016
ag21
(S'pd'
p1017
tp1018
Rp1019
ag21
(S'4q'
p1020
tp1021
Rp1022
ag21
(S'8p'
p1023
tp1024
Rp1025
ag21
(S'10r'
p1026
tp1027
Rp1028
ag21
(S'pd'
p1029
tp1030
Rp1031
ag21
(S'4q'
p1032
tp1033
Rp1034
ag21
(S'8p'
p1035
tp1036
Rp1037
ag21
(S'78'
p1038
tp1039
Rp1040
aI9
I01
tp1041
Rp1042
ag70
(g80
(lp1043
g21
(S'10r'
p1044
tp1045
Rp1046
ag21
(S'pd'
p1047
tp1048
Rp1049
ag21
(S'4q'
p1050
tp1051
Rp1052
ag21
(S'8p'
p1053
tp1054
Rp1055
ag21
(S'10r'
p1056
tp1057
Rp1058
ag21
(S'pd'
p1059
tp1060
Rp1061
ag21
(S'4q'
p1062
tp1063
Rp1064
ag21
(S'8p'
p1065
tp1066
Rp1067
ag21
(S'b4'
p1068
tp1069
Rp1070
aI9
I01
tp1071
Rp1072
ag70
(g80
(lp1073
g21
(S'10r'
p1074
tp1075
Rp1076
ag21
(S'pd'
p1077
tp1078
Rp1079
ag21
(S'4q'
p1080
tp1081
Rp1082
ag21
(S'8p'
p1083
tp1084
Rp1085
ag21
(S'10r'
p1086
tp1087
Rp1088
ag21
(S'pd'
p1089
tp1090
Rp1091
ag21
(S'4q'
p1092
tp1093
Rp1094
ag21
(S'8p'
p1095
tp1096
Rp1097
ag21
(S'6m'
p1098
tp1099
Rp1100
aI9
I01
tp1101
Rp1102
ag70
(g80
(lp1103
g21
(S'10r'
p1104
tp1105
Rp1106
ag21
(S'pd'
p1107
tp1108
Rp1109
ag21
(S'4q'
p1110
tp1111
Rp1112
ag21
(S'8p'
p1113
tp1114
Rp1115
ag21
(S'10r'
p1116
tp1117
Rp1118
ag21
(S'pd'
p1119
tp1120
Rp1121
ag21
(S'4q'
p1122
tp1123
Rp1124
ag21
(S'8p'
p1125
tp1126
Rp1127
ag21
(S'dl'
p1128
tp1129
Rp1130
aI9
I01
tp1131
Rp1132
ag70
(g80
(lp1133
g21
(S'10r'
p1134
tp1135
Rp1136
ag21
(S'pd'
p1137
tp1138
Rp1139
ag21
(S'4q'
p1140
tp1141
Rp1142
ag21
(S'8p'
p1143
tp1144
Rp1145
ag21
(S'10r'
p1146
tp1147
Rp1148
ag21
(S'pd'
p1149
tp1150
Rp1151
ag21
(S'4q'
p1152
tp1153
Rp1154
ag21
(S'8p'
p1155
tp1156
Rp1157
ag21
(S'52'
p1158
tp1159
Rp1160
aI9
I01
tp1161
Rp1162
ag70
(g80
(lp1163
g21
(S'10r'
p1164
tp1165
Rp1166
ag21
(S'pd'
p1167
tp1168
Rp1169
ag21
(S'4q'
p1170
tp1171
Rp1172
ag21
(S'8p'
p1173
tp1174
Rp1175
ag21
(S'10r'
p1176
tp1177
Rp1178
ag21
(S'pd'
p1179
tp1180
Rp1181
ag21
(S'4q'
p1182
tp1183
Rp1184
ag21
(S'8p'
p1185
tp1186
Rp1187
ag21
(S'3e'
p1188
tp1189
Rp1190
aI9
I01
tp1191
Rp1192
ag70
(g80
(lp1193
g21
(S'10r'
p1194
tp1195
Rp1196
ag21
(S'pd'
p1197
tp1198
Rp1199
ag21
(S'4q'
p1200
tp1201
Rp1202
ag21
(S'8p'
p1203
tp1204
Rp1205
ag21
(S'10r'
p1206
tp1207
Rp1208
ag21
(S'pd'
p1209
tp1210
Rp1211
ag21
(S'4q'
p1212
tp1213
Rp1214
ag21
(S'8p'
p1215
tp1216
Rp1217
ag21
(S'6m'
p1218
tp1219
Rp1220
aI9
I01
tp1221
Rp1222
ag70
(g80
(lp1223
g21
(S'10r'
p1224
tp1225
Rp1226
ag21
(S'pd'
p1227
tp1228
Rp1229
ag21
(S'4q'
p1230
tp1231
Rp1232
ag21
(S'8p'
p1233
tp1234
Rp1235
ag21
(S'10r'
p1236
tp1237
Rp1238
ag21
(S'pd'
p1239
tp1240
Rp1241
ag21
(S'4q'
p1242
tp1243
Rp1244
ag21
(S'8p'
p1245
tp1246
Rp1247
ag21
(S'93'
p1248
tp1249
Rp1250
aI9
I01
tp1251
Rp1252
ag70
(g80
(lp1253
g21
(S'10r'
p1254
tp1255
Rp1256
ag21
(S'pd'
p1257
tp1258
Rp1259
ag21
(S'4q'
p1260
tp1261
Rp1262
ag21
(S'8p'
p1263
tp1264
Rp1265
ag21
(S'10r'
p1266
tp1267
Rp1268
ag21
(S'pd'
p1269
tp1270
Rp1271
ag21
(S'4q'
p1272
tp1273
Rp1274
ag21
(S'8p'
p1275
tp1276
Rp1277
ag21
(S'5t'
p1278
tp1279
Rp1280
aI9
I01
tp1281
Rp1282
ag70
(g80
(lp1283
g21
(S'10r'
p1284
tp1285
Rp1286
ag21
(S'pd'
p1287
tp1288
Rp1289
ag21
(S'4q'
p1290
tp1291
Rp1292
ag21
(S'8p'
p1293
tp1294
Rp1295
ag21
(S'10r'
p1296
tp1297
Rp1298
ag21
(S'pd'
p1299
tp1300
Rp1301
ag21
(S'4q'
p1302
tp1303
Rp1304
ag21
(S'8p'
p1305
tp1306
Rp1307
ag21
(S'b3'
p1308
tp1309
Rp1310
aI9
I01
tp1311
Rp1312
ag70
(g80
(lp1313
g21
(S'10r'
p1314
tp1315
Rp1316
ag21
(S'pd'
p1317
tp1318
Rp1319
ag21
(S'4q'
p1320
tp1321
Rp1322
ag21
(S'8p'
p1323
tp1324
Rp1325
ag21
(S'10r'
p1326
tp1327
Rp1328
ag21
(S'pd'
p1329
tp1330
Rp1331
ag21
(S'4q'
p1332
tp1333
Rp1334
ag21
(S'8p'
p1335
tp1336
Rp1337
ag21
(S'3o'
p1338
tp1339
Rp1340
aI9
I01
tp1341
Rp1342
ag70
(g80
(lp1343
g21
(S'10r'
p1344
tp1345
Rp1346
ag21
(S'pd'
p1347
tp1348
Rp1349
ag21
(S'4q'
p1350
tp1351
Rp1352
ag21
(S'8p'
p1353
tp1354
Rp1355
ag21
(S'10r'
p1356
tp1357
Rp1358
ag21
(S'pd'
p1359
tp1360
Rp1361
ag21
(S'4q'
p1362
tp1363
Rp1364
ag21
(S'8p'
p1365
tp1366
Rp1367
ag21
(S'e6'
p1368
tp1369
Rp1370
aI9
I01
tp1371
Rp1372
ag70
(g80
(lp1373
g21
(S'10r'
p1374
tp1375
Rp1376
ag21
(S'pd'
p1377
tp1378
Rp1379
ag21
(S'4q'
p1380
tp1381
Rp1382
ag21
(S'8p'
p1383
tp1384
Rp1385
ag21
(S'10r'
p1386
tp1387
Rp1388
ag21
(S'pd'
p1389
tp1390
Rp1391
ag21
(S'4q'
p1392
tp1393
Rp1394
ag21
(S'8p'
p1395
tp1396
Rp1397
ag21
(S'br'
p1398
tp1399
Rp1400
aI9
I01
tp1401
Rp1402
ag70
(g80
(lp1403
g21
(S'10r'
p1404
tp1405
Rp1406
ag21
(S'pd'
p1407
tp1408
Rp1409
ag21
(S'4q'
p1410
tp1411
Rp1412
ag21
(S'8p'
p1413
tp1414
Rp1415
ag21
(S'10r'
p1416
tp1417
Rp1418
ag21
(S'pd'
p1419
tp1420
Rp1421
ag21
(S'4q'
p1422
tp1423
Rp1424
ag21
(S'8p'
p1425
tp1426
Rp1427
ag21
(S'e8'
p1428
tp1429
Rp1430
aI9
I01
tp1431
Rp1432
ag70
(g80
(lp1433
g21
(S'10r'
p1434
tp1435
Rp1436
ag21
(S'pd'
p1437
tp1438
Rp1439
ag21
(S'4q'
p1440
tp1441
Rp1442
ag21
(S'8p'
p1443
tp1444
Rp1445
ag21
(S'10r'
p1446
tp1447
Rp1448
ag21
(S'pd'
p1449
tp1450
Rp1451
ag21
(S'4q'
p1452
tp1453
Rp1454
ag21
(S'8p'
p1455
tp1456
Rp1457
ag21
(S'ej'
p1458
tp1459
Rp1460
aI9
I01
tp1461
Rp1462
ag70
(g80
(lp1463
g21
(S'10r'
p1464
tp1465
Rp1466
ag21
(S'pd'
p1467
tp1468
Rp1469
ag21
(S'4q'
p1470
tp1471
Rp1472
ag21
(S'8p'
p1473
tp1474
Rp1475
ag21
(S'10r'
p1476
tp1477
Rp1478
ag21
(S'pd'
p1479
tp1480
Rp1481
ag21
(S'4q'
p1482
tp1483
Rp1484
ag21
(S'8p'
p1485
tp1486
Rp1487
ag21
(S'8g'
p1488
tp1489
Rp1490
aI9
I01
tp1491
Rp1492
ag70
(g80
(lp1493
g21
(S'10r'
p1494
tp1495
Rp1496
ag21
(S'pd'
p1497
tp1498
Rp1499
ag21
(S'4q'
p1500
tp1501
Rp1502
ag21
(S'8p'
p1503
tp1504
Rp1505
ag21
(S'10r'
p1506
tp1507
Rp1508
ag21
(S'pd'
p1509
tp1510
Rp1511
ag21
(S'4q'
p1512
tp1513
Rp1514
ag21
(S'8p'
p1515
tp1516
Rp1517
ag21
(S'ep'
p1518
tp1519
Rp1520
aI9
I01
tp1521
Rp1522
ag70
(g80
(lp1523
g21
(S'10r'
p1524
tp1525
Rp1526
ag21
(S'pd'
p1527
tp1528
Rp1529
ag21
(S'4q'
p1530
tp1531
Rp1532
ag21
(S'8p'
p1533
tp1534
Rp1535
ag21
(S'10r'
p1536
tp1537
Rp1538
ag21
(S'pd'
p1539
tp1540
Rp1541
ag21
(S'4q'
p1542
tp1543
Rp1544
ag21
(S'8p'
p1545
tp1546
Rp1547
ag21
(S'e1'
p1548
tp1549
Rp1550
aI9
I01
tp1551
Rp1552
ag70
(g80
(lp1553
g21
(S'10r'
p1554
tp1555
Rp1556
ag21
(S'pd'
p1557
tp1558
Rp1559
ag21
(S'4q'
p1560
tp1561
Rp1562
ag21
(S'8p'
p1563
tp1564
Rp1565
ag21
(S'10r'
p1566
tp1567
Rp1568
ag21
(S'pd'
p1569
tp1570
Rp1571
ag21
(S'4q'
p1572
tp1573
Rp1574
ag21
(S'8p'
p1575
tp1576
Rp1577
ag21
(S'c3'
p1578
tp1579
Rp1580
aI9
I01
tp1581
Rp1582
ag70
(g80
(lp1583
g21
(S'10r'
p1584
tp1585
Rp1586
ag21
(S'pd'
p1587
tp1588
Rp1589
ag21
(S'4q'
p1590
tp1591
Rp1592
ag21
(S'8p'
p1593
tp1594
Rp1595
ag21
(S'10r'
p1596
tp1597
Rp1598
ag21
(S'pd'
p1599
tp1600
Rp1601
ag21
(S'4q'
p1602
tp1603
Rp1604
ag21
(S'8p'
p1605
tp1606
Rp1607
ag21
(S'8g'
p1608
tp1609
Rp1610
aI9
I01
tp1611
Rp1612
a(lp1613
g70
(g80
(lp1614
g21
(g82
tp1615
Rp1616
ag21
(g82
tp1617
Rp1618
ag21
(g82
tp1619
Rp1620
ag21
(g82
tp1621
Rp1622
ag21
(S'2'
p1623
tp1624
Rp1625
ag21
(S'3'
p1626
tp1627
Rp1628
ag21
(S'd'
p1629
tp1630
Rp1631
ag21
(S'7'
p1632
tp1633
Rp1634
ag21
(g82
tp1635
Rp1636
aI9
I01
tp1637
Rp1638
ag70
(g80
(lp1639
g21
(g82
tp1640
Rp1641
ag21
(g82
tp1642
Rp1643
ag21
(g82
tp1644
Rp1645
ag21
(g82
tp1646
Rp1647
ag21
(g1623
tp1648
Rp1649
ag21
(g1626
tp1650
Rp1651
ag21
(g1629
tp1652
Rp1653
ag21
(g1632
tp1654
Rp1655
ag21
(g82
tp1656
Rp1657
aI9
I01
tp1658
Rp1659
ag70
(g80
(lp1660
g21
(g82
tp1661
Rp1662
ag21
(g82
tp1663
Rp1664
ag21
(g82
tp1665
Rp1666
ag21
(g82
tp1667
Rp1668
ag21
(g1623
tp1669
Rp1670
ag21
(g1626
tp1671
Rp1672
ag21
(g1629
tp1673
Rp1674
ag21
(g1632
tp1675
Rp1676
ag21
(g82
tp1677
Rp1678
aI9
I01
tp1679
Rp1680
ag70
(g80
(lp1681
g21
(g82
tp1682
Rp1683
ag21
(g82
tp1684
Rp1685
ag21
(g82
tp1686
Rp1687
ag21
(g82
tp1688
Rp1689
ag21
(g1623
tp1690
Rp1691
ag21
(g1626
tp1692
Rp1693
ag21
(g1629
tp1694
Rp1695
ag21
(g1632
tp1696
Rp1697
ag21
(g82
tp1698
Rp1699
aI9
I01
tp1700
Rp1701
ag70
(g80
(lp1702
g21
(g82
tp1703
Rp1704
ag21
(g82
tp1705
Rp1706
ag21
(g82
tp1707
Rp1708
ag21
(g82
tp1709
Rp1710
ag21
(g1623
tp1711
Rp1712
ag21
(g1626
tp1713
Rp1714
ag21
(g1629
tp1715
Rp1716
ag21
(g1632
tp1717
Rp1718
ag21
(g82
tp1719
Rp1720
aI9
I01
tp1721
Rp1722
ag70
(g80
(lp1723
g21
(g82
tp1724
Rp1725
ag21
(g82
tp1726
Rp1727
ag21
(g82
tp1728
Rp1729
ag21
(g82
tp1730
Rp1731
ag21
(g1623
tp1732
Rp1733
ag21
(g1626
tp1734
Rp1735
ag21
(g1629
tp1736
Rp1737
ag21
(g1632
tp1738
Rp1739
ag21
(g82
tp1740
Rp1741
aI9
I01
tp1742
Rp1743
ag70
(g80
(lp1744
g21
(g82
tp1745
Rp1746
ag21
(g82
tp1747
Rp1748
ag21
(g82
tp1749
Rp1750
ag21
(g82
tp1751
Rp1752
ag21
(g1623
tp1753
Rp1754
ag21
(g1626
tp1755
Rp1756
ag21
(g1629
tp1757
Rp1758
ag21
(g1632
tp1759
Rp1760
ag21
(g82
tp1761
Rp1762
aI9
I01
tp1763
Rp1764
ag70
(g80
(lp1765
g21
(g82
tp1766
Rp1767
ag21
(g82
tp1768
Rp1769
ag21
(g82
tp1770
Rp1771
ag21
(g82
tp1772
Rp1773
ag21
(g1623
tp1774
Rp1775
ag21
(g1626
tp1776
Rp1777
ag21
(g1629
tp1778
Rp1779
ag21
(g1632
tp1780
Rp1781
ag21
(g82
tp1782
Rp1783
aI9
I01
tp1784
Rp1785
ag70
(g80
(lp1786
g21
(g82
tp1787
Rp1788
ag21
(g82
tp1789
Rp1790
ag21
(g82
tp1791
Rp1792
ag21
(g82
tp1793
Rp1794
ag21
(g1623
tp1795
Rp1796
ag21
(g1626
tp1797
Rp1798
ag21
(g1629
tp1799
Rp1800
ag21
(g1632
tp1801
Rp1802
ag21
(g82
tp1803
Rp1804
aI9
I01
tp1805
Rp1806
ag70
(g80
(lp1807
g21
(g82
tp1808
Rp1809
ag21
(g82
tp1810
Rp1811
ag21
(g82
tp1812
Rp1813
ag21
(g82
tp1814
Rp1815
ag21
(g1623
tp1816
Rp1817
ag21
(g1626
tp1818
Rp1819
ag21
(g1629
tp1820
Rp1821
ag21
(g1632
tp1822
Rp1823
ag21
(g82
tp1824
Rp1825
aI9
I01
tp1826
Rp1827
ag70
(g80
(lp1828
g21
(g82
tp1829
Rp1830
ag21
(g82
tp1831
Rp1832
ag21
(g82
tp1833
Rp1834
ag21
(g82
tp1835
Rp1836
ag21
(g1623
tp1837
Rp1838
ag21
(g1626
tp1839
Rp1840
ag21
(g1629
tp1841
Rp1842
ag21
(g1632
tp1843
Rp1844
ag21
(g82
tp1845
Rp1846
aI9
I01
tp1847
Rp1848
ag70
(g80
(lp1849
g21
(g82
tp1850
Rp1851
ag21
(g82
tp1852
Rp1853
ag21
(g82
tp1854
Rp1855
ag21
(g82
tp1856
Rp1857
ag21
(g1623
tp1858
Rp1859
ag21
(g1626
tp1860
Rp1861
ag21
(g1629
tp1862
Rp1863
ag21
(g1632
tp1864
Rp1865
ag21
(g82
tp1866
Rp1867
aI9
I01
tp1868
Rp1869
ag70
(g80
(lp1870
g21
(g82
tp1871
Rp1872
ag21
(g82
tp1873
Rp1874
ag21
(g82
tp1875
Rp1876
ag21
(g82
tp1877
Rp1878
ag21
(g1623
tp1879
Rp1880
ag21
(g1626
tp1881
Rp1882
ag21
(g1629
tp1883
Rp1884
ag21
(g1632
tp1885
Rp1886
ag21
(g82
tp1887
Rp1888
aI9
I01
tp1889
Rp1890
ag70
(g80
(lp1891
g21
(g82
tp1892
Rp1893
ag21
(g82
tp1894
Rp1895
ag21
(g82
tp1896
Rp1897
ag21
(g82
tp1898
Rp1899
ag21
(g1623
tp1900
Rp1901
ag21
(g1626
tp1902
Rp1903
ag21
(g1629
tp1904
Rp1905
ag21
(g1632
tp1906
Rp1907
ag21
(g82
tp1908
Rp1909
aI9
I01
tp1910
Rp1911
ag70
(g80
(lp1912
g21
(g82
tp1913
Rp1914
ag21
(g82
tp1915
Rp1916
ag21
(g82
tp1917
Rp1918
ag21
(g82
tp1919
Rp1920
ag21
(g1623
tp1921
Rp1922
ag21
(g1626
tp1923
Rp1924
ag21
(g1629
tp1925
Rp1926
ag21
(g1632
tp1927
Rp1928
ag21
(g82
tp1929
Rp1930
aI9
I01
tp1931
Rp1932
ag70
(g80
(lp1933
g21
(g82
tp1934
Rp1935
ag21
(g82
tp1936
Rp1937
ag21
(g82
tp1938
Rp1939
ag21
(g82
tp1940
Rp1941
ag21
(g1623
tp1942
Rp1943
ag21
(g1626
tp1944
Rp1945
ag21
(g1629
tp1946
Rp1947
ag21
(g1632
tp1948
Rp1949
ag21
(g82
tp1950
Rp1951
aI9
I01
tp1952
Rp1953
ag70
(g80
(lp1954
g21
(g82
tp1955
Rp1956
ag21
(g82
tp1957
Rp1958
ag21
(g82
tp1959
Rp1960
ag21
(g82
tp1961
Rp1962
ag21
(g1623
tp1963
Rp1964
ag21
(g1626
tp1965
Rp1966
ag21
(g1629
tp1967
Rp1968
ag21
(g1632
tp1969
Rp1970
ag21
(g82
tp1971
Rp1972
aI9
I01
tp1973
Rp1974
ag70
(g80
(lp1975
g21
(g82
tp1976
Rp1977
ag21
(g82
tp1978
Rp1979
ag21
(g82
tp1980
Rp1981
ag21
(g82
tp1982
Rp1983
ag21
(g1623
tp1984
Rp1985
ag21
(g1626
tp1986
Rp1987
ag21
(g1629
tp1988
Rp1989
ag21
(g1632
tp1990
Rp1991
ag21
(g82
tp1992
Rp1993
aI9
I01
tp1994
Rp1995
ag70
(g80
(lp1996
g21
(g82
tp1997
Rp1998
ag21
(g82
tp1999
Rp2000
ag21
(g82
tp2001
Rp2002
ag21
(g82
tp2003
Rp2004
ag21
(g1623
tp2005
Rp2006
ag21
(g1626
tp2007
Rp2008
ag21
(g1629
tp2009
Rp2010
ag21
(g1632
tp2011
Rp2012
ag21
(g82
tp2013
Rp2014
aI9
I01
tp2015
Rp2016
ag70
(g80
(lp2017
g21
(g82
tp2018
Rp2019
ag21
(g82
tp2020
Rp2021
ag21
(g82
tp2022
Rp2023
ag21
(g82
tp2024
Rp2025
ag21
(g1623
tp2026
Rp2027
ag21
(g1626
tp2028
Rp2029
ag21
(g1629
tp2030
Rp2031
ag21
(g1632
tp2032
Rp2033
ag21
(g82
tp2034
Rp2035
aI9
I01
tp2036
Rp2037
ag70
(g80
(lp2038
g21
(g82
tp2039
Rp2040
ag21
(g82
tp2041
Rp2042
ag21
(g82
tp2043
Rp2044
ag21
(g82
tp2045
Rp2046
ag21
(g1623
tp2047
Rp2048
ag21
(g1626
tp2049
Rp2050
ag21
(g1629
tp2051
Rp2052
ag21
(g1632
tp2053
Rp2054
ag21
(g82
tp2055
Rp2056
aI9
I01
tp2057
Rp2058
ag70
(g80
(lp2059
g21
(g82
tp2060
Rp2061
ag21
(g82
tp2062
Rp2063
ag21
(g82
tp2064
Rp2065
ag21
(g82
tp2066
Rp2067
ag21
(g1623
tp2068
Rp2069
ag21
(g1626
tp2070
Rp2071
ag21
(g1629
tp2072
Rp2073
ag21
(g1632
tp2074
Rp2075
ag21
(g82
tp2076
Rp2077
aI9
I01
tp2078
Rp2079
ag70
(g80
(lp2080
g21
(g82
tp2081
Rp2082
ag21
(g82
tp2083
Rp2084
ag21
(g82
tp2085
Rp2086
ag21
(g82
tp2087
Rp2088
ag21
(g1623
tp2089
Rp2090
ag21
(g1626
tp2091
Rp2092
ag21
(g1629
tp2093
Rp2094
ag21
(g1632
tp2095
Rp2096
ag21
(g82
tp2097
Rp2098
aI9
I01
tp2099
Rp2100
ag70
(g80
(lp2101
g21
(g82
tp2102
Rp2103
ag21
(g82
tp2104
Rp2105
ag21
(g82
tp2106
Rp2107
ag21
(g82
tp2108
Rp2109
ag21
(g1623
tp2110
Rp2111
ag21
(g1626
tp2112
Rp2113
ag21
(g1629
tp2114
Rp2115
ag21
(g1632
tp2116
Rp2117
ag21
(g82
tp2118
Rp2119
aI9
I01
tp2120
Rp2121
ag70
(g80
(lp2122
g21
(g82
tp2123
Rp2124
ag21
(g82
tp2125
Rp2126
ag21
(g82
tp2127
Rp2128
ag21
(g82
tp2129
Rp2130
ag21
(g1623
tp2131
Rp2132
ag21
(g1626
tp2133
Rp2134
ag21
(g1629
tp2135
Rp2136
ag21
(g1632
tp2137
Rp2138
ag21
(g82
tp2139
Rp2140
aI9
I01
tp2141
Rp2142
ag70
(g80
(lp2143
g21
(g82
tp2144
Rp2145
ag21
(g82
tp2146
Rp2147
ag21
(g82
tp2148
Rp2149
ag21
(g82
tp2150
Rp2151
ag21
(g1623
tp2152
Rp2153
ag21
(g1626
tp2154
Rp2155
ag21
(g1629
tp2156
Rp2157
ag21
(g1632
tp2158
Rp2159
ag21
(g82
tp2160
Rp2161
aI9
I01
tp2162
Rp2163
ag70
(g80
(lp2164
g21
(g82
tp2165
Rp2166
ag21
(g82
tp2167
Rp2168
ag21
(g82
tp2169
Rp2170
ag21
(g82
tp2171
Rp2172
ag21
(g1623
tp2173
Rp2174
ag21
(g1626
tp2175
Rp2176
ag21
(g1629
tp2177
Rp2178
ag21
(g1632
tp2179
Rp2180
ag21
(g82
tp2181
Rp2182
aI9
I01
tp2183
Rp2184
ag70
(g80
(lp2185
g21
(g82
tp2186
Rp2187
ag21
(g82
tp2188
Rp2189
ag21
(g82
tp2190
Rp2191
ag21
(g82
tp2192
Rp2193
ag21
(g1623
tp2194
Rp2195
ag21
(g1626
tp2196
Rp2197
ag21
(g1629
tp2198
Rp2199
ag21
(g1632
tp2200
Rp2201
ag21
(g82
tp2202
Rp2203
aI9
I01
tp2204
Rp2205
ag70
(g80
(lp2206
g21
(g82
tp2207
Rp2208
ag21
(g82
tp2209
Rp2210
ag21
(g82
tp2211
Rp2212
ag21
(g82
tp2213
Rp2214
ag21
(g1623
tp2215
Rp2216
ag21
(g1626
tp2217
Rp2218
ag21
(g1629
tp2219
Rp2220
ag21
(g1632
tp2221
Rp2222
ag21
(g82
tp2223
Rp2224
aI9
I01
tp2225
Rp2226
ag70
(g80
(lp2227
g21
(g82
tp2228
Rp2229
ag21
(g82
tp2230
Rp2231
ag21
(g82
tp2232
Rp2233
ag21
(g82
tp2234
Rp2235
ag21
(g1623
tp2236
Rp2237
ag21
(g1626
tp2238
Rp2239
ag21
(g1629
tp2240
Rp2241
ag21
(g1632
tp2242
Rp2243
ag21
(g82
tp2244
Rp2245
aI9
I01
tp2246
Rp2247
a(lp2248
g70
(g80
(lp2249
g21
(g82
tp2250
Rp2251
ag21
(g82
tp2252
Rp2253
ag21
(g82
tp2254
Rp2255
ag21
(g82
tp2256
Rp2257
ag21
(S'10r'
p2258
tp2259
Rp2260
ag21
(S'pd'
p2261
tp2262
Rp2263
ag21
(S'4q'
p2264
tp2265
Rp2266
ag21
(S'8p'
p2267
tp2268
Rp2269
ag21
(S'af'
p2270
tp2271
Rp2272
aI9
I01
tp2273
Rp2274
ag70
(g80
(lp2275
g21
(g82
tp2276
Rp2277
ag21
(g82
tp2278
Rp2279
ag21
(g82
tp2280
Rp2281
ag21
(g82
tp2282
Rp2283
ag21
(g82
tp2284
Rp2285
ag21
(g82
tp2286
Rp2287
ag21
(g82
tp2288
Rp2289
ag21
(g82
tp2290
Rp2291
ag21
(S'8v'
p2292
tp2293
Rp2294
aI9
I01
tp2295
Rp2296
ag70
(g80
(lp2297
g21
(g82
tp2298
Rp2299
ag21
(g82
tp2300
Rp2301
ag21
(g82
tp2302
Rp2303
ag21
(g82
tp2304
Rp2305
ag21
(g82
tp2306
Rp2307
ag21
(g82
tp2308
Rp2309
ag21
(g82
tp2310
Rp2311
ag21
(g82
tp2312
Rp2313
ag21
(S'44'
p2314
tp2315
Rp2316
aI9
I01
tp2317
Rp2318
ag70
(g80
(lp2319
g21
(g82
tp2320
Rp2321
ag21
(g82
tp2322
Rp2323
ag21
(g82
tp2324
Rp2325
ag21
(g82
tp2326
Rp2327
ag21
(g82
tp2328
Rp2329
ag21
(g82
tp2330
Rp2331
ag21
(g82
tp2332
Rp2333
ag21
(g82
tp2334
Rp2335
ag21
(S'eo'
p2336
tp2337
Rp2338
aI9
I01
tp2339
Rp2340
ag70
(g80
(lp2341
g21
(g82
tp2342
Rp2343
ag21
(g82
tp2344
Rp2345
ag21
(g82
tp2346
Rp2347
ag21
(g82
tp2348
Rp2349
ag21
(g82
tp2350
Rp2351
ag21
(g82
tp2352
Rp2353
ag21
(g82
tp2354
Rp2355
ag21
(g82
tp2356
Rp2357
ag21
(S'd0'
p2358
tp2359
Rp2360
aI9
I01
tp2361
Rp2362
ag70
(g80
(lp2363
g21
(g82
tp2364
Rp2365
ag21
(g82
tp2366
Rp2367
ag21
(g82
tp2368
Rp2369
ag21
(g82
tp2370
Rp2371
ag21
(g82
tp2372
Rp2373
ag21
(g82
tp2374
Rp2375
ag21
(g82
tp2376
Rp2377
ag21
(g82
tp2378
Rp2379
ag21
(S'cf'
p2380
tp2381
Rp2382
aI9
I01
tp2383
Rp2384
ag70
(g80
(lp2385
g21
(g82
tp2386
Rp2387
ag21
(g82
tp2388
Rp2389
ag21
(g82
tp2390
Rp2391
ag21
(g82
tp2392
Rp2393
ag21
(g82
tp2394
Rp2395
ag21
(g82
tp2396
Rp2397
ag21
(g82
tp2398
Rp2399
ag21
(g82
tp2400
Rp2401
ag21
(S'79'
p2402
tp2403
Rp2404
aI9
I01
tp2405
Rp2406
ag70
(g80
(lp2407
g21
(g82
tp2408
Rp2409
ag21
(g82
tp2410
Rp2411
ag21
(g82
tp2412
Rp2413
ag21
(g82
tp2414
Rp2415
ag21
(g82
tp2416
Rp2417
ag21
(g82
tp2418
Rp2419
ag21
(g82
tp2420
Rp2421
ag21
(g82
tp2422
Rp2423
ag21
(S'eu'
p2424
tp2425
Rp2426
aI9
I01
tp2427
Rp2428
ag70
(g80
(lp2429
g21
(g82
tp2430
Rp2431
ag21
(g82
tp2432
Rp2433
ag21
(g82
tp2434
Rp2435
ag21
(g82
tp2436
Rp2437
ag21
(g82
tp2438
Rp2439
ag21
(g82
tp2440
Rp2441
ag21
(g82
tp2442
Rp2443
ag21
(g82
tp2444
Rp2445
ag21
(S'5m'
p2446
tp2447
Rp2448
aI9
I01
tp2449
Rp2450
ag70
(g80
(lp2451
g21
(g82
tp2452
Rp2453
ag21
(g82
tp2454
Rp2455
ag21
(g82
tp2456
Rp2457
ag21
(g82
tp2458
Rp2459
ag21
(g82
tp2460
Rp2461
ag21
(g82
tp2462
Rp2463
ag21
(g82
tp2464
Rp2465
ag21
(g82
tp2466
Rp2467
ag21
(S'7f'
p2468
tp2469
Rp2470
aI9
I01
tp2471
Rp2472
ag70
(g80
(lp2473
g21
(g82
tp2474
Rp2475
ag21
(g82
tp2476
Rp2477
ag21
(g82
tp2478
Rp2479
ag21
(g82
tp2480
Rp2481
ag21
(g82
tp2482
Rp2483
ag21
(g82
tp2484
Rp2485
ag21
(g82
tp2486
Rp2487
ag21
(g82
tp2488
Rp2489
ag21
(S'78'
p2490
tp2491
Rp2492
aI9
I01
tp2493
Rp2494
ag70
(g80
(lp2495
g21
(g82
tp2496
Rp2497
ag21
(g82
tp2498
Rp2499
ag21
(g82
tp2500
Rp2501
ag21
(g82
tp2502
Rp2503
ag21
(g82
tp2504
Rp2505
ag21
(g82
tp2506
Rp2507
ag21
(g82
tp2508
Rp2509
ag21
(g82
tp2510
Rp2511
ag21
(S'b4'
p2512
tp2513
Rp2514
aI9
I01
tp2515
Rp2516
ag70
(g80
(lp2517
g21
(g82
tp2518
Rp2519
ag21
(g82
tp2520
Rp2521
ag21
(g82
tp2522
Rp2523
ag21
(g82
tp2524
Rp2525
ag21
(g82
tp2526
Rp2527
ag21
(g82
tp2528
Rp2529
ag21
(g82
tp2530
Rp2531
ag21
(g82
tp2532
Rp2533
ag21
(S'6m'
p2534
tp2535
Rp2536
aI9
I01
tp2537
Rp2538
ag70
(g80
(lp2539
g21
(g82
tp2540
Rp2541
ag21
(g82
tp2542
Rp2543
ag21
(g82
tp2544
Rp2545
ag21
(g82
tp2546
Rp2547
ag21
(g82
tp2548
Rp2549
ag21
(g82
tp2550
Rp2551
ag21
(g82
tp2552
Rp2553
ag21
(g82
tp2554
Rp2555
ag21
(S'dl'
p2556
tp2557
Rp2558
aI9
I01
tp2559
Rp2560
ag70
(g80
(lp2561
g21
(g82
tp2562
Rp2563
ag21
(g82
tp2564
Rp2565
ag21
(g82
tp2566
Rp2567
ag21
(g82
tp2568
Rp2569
ag21
(g82
tp2570
Rp2571
ag21
(g82
tp2572
Rp2573
ag21
(g82
tp2574
Rp2575
ag21
(g82
tp2576
Rp2577
ag21
(S'52'
p2578
tp2579
Rp2580
aI9
I01
tp2581
Rp2582
ag70
(g80
(lp2583
g21
(g82
tp2584
Rp2585
ag21
(g82
tp2586
Rp2587
ag21
(g82
tp2588
Rp2589
ag21
(g82
tp2590
Rp2591
ag21
(g82
tp2592
Rp2593
ag21
(g82
tp2594
Rp2595
ag21
(g82
tp2596
Rp2597
ag21
(g82
tp2598
Rp2599
ag21
(S'3e'
p2600
tp2601
Rp2602
aI9
I01
tp2603
Rp2604
ag70
(g80
(lp2605
g21
(g82
tp2606
Rp2607
ag21
(g82
tp2608
Rp2609
ag21
(g82
tp2610
Rp2611
ag21
(g82
tp2612
Rp2613
ag21
(g82
tp2614
Rp2615
ag21
(g82
tp2616
Rp2617
ag21
(g82
tp2618
Rp2619
ag21
(g82
tp2620
Rp2621
ag21
(S'6m'
p2622
tp2623
Rp2624
aI9
I01
tp2625
Rp2626
ag70
(g80
(lp2627
g21
(g82
tp2628
Rp2629
ag21
(g82
tp2630
Rp2631
ag21
(g82
tp2632
Rp2633
ag21
(g82
tp2634
Rp2635
ag21
(g82
tp2636
Rp2637
ag21
(g82
tp2638
Rp2639
ag21
(g82
tp2640
Rp2641
ag21
(g82
tp2642
Rp2643
ag21
(S'93'
p2644
tp2645
Rp2646
aI9
I01
tp2647
Rp2648
ag70
(g80
(lp2649
g21
(g82
tp2650
Rp2651
ag21
(g82
tp2652
Rp2653
ag21
(g82
tp2654
Rp2655
ag21
(g82
tp2656
Rp2657
ag21
(g82
tp2658
Rp2659
ag21
(g82
tp2660
Rp2661
ag21
(g82
tp2662
Rp2663
ag21
(g82
tp2664
Rp2665
ag21
(S'5t'
p2666
tp2667
Rp2668
aI9
I01
tp2669
Rp2670
ag70
(g80
(lp2671
g21
(g82
tp2672
Rp2673
ag21
(g82
tp2674
Rp2675
ag21
(g82
tp2676
Rp2677
ag21
(g82
tp2678
Rp2679
ag21
(g82
tp2680
Rp2681
ag21
(g82
tp2682
Rp2683
ag21
(g82
tp2684
Rp2685
ag21
(g82
tp2686
Rp2687
ag21
(S'b3'
p2688
tp2689
Rp2690
aI9
I01
tp2691
Rp2692
ag70
(g80
(lp2693
g21
(g82
tp2694
Rp2695
ag21
(g82
tp2696
Rp2697
ag21
(g82
tp2698
Rp2699
ag21
(g82
tp2700
Rp2701
ag21
(g82
tp2702
Rp2703
ag21
(g82
tp2704
Rp2705
ag21
(g82
tp2706
Rp2707
ag21
(g82
tp2708
Rp2709
ag21
(S'3o'
p2710
tp2711
Rp2712
aI9
I01
tp2713
Rp2714
ag70
(g80
(lp2715
g21
(g82
tp2716
Rp2717
ag21
(g82
tp2718
Rp2719
ag21
(g82
tp2720
Rp2721
ag21
(g82
tp2722
Rp2723
ag21
(g82
tp2724
Rp2725
ag21
(g82
tp2726
Rp2727
ag21
(g82
tp2728
Rp2729
ag21
(g82
tp2730
Rp2731
ag21
(S'e6'
p2732
tp2733
Rp2734
aI9
I01
tp2735
Rp2736
ag70
(g80
(lp2737
g21
(g82
tp2738
Rp2739
ag21
(g82
tp2740
Rp2741
ag21
(g82
tp2742
Rp2743
ag21
(g82
tp2744
Rp2745
ag21
(g82
tp2746
Rp2747
ag21
(g82
tp2748
Rp2749
ag21
(g82
tp2750
Rp2751
ag21
(g82
tp2752
Rp2753
ag21
(S'br'
p2754
tp2755
Rp2756
aI9
I01
tp2757
Rp2758
ag70
(g80
(lp2759
g21
(g82
tp2760
Rp2761
ag21
(g82
tp2762
Rp2763
ag21
(g82
tp2764
Rp2765
ag21
(g82
tp2766
Rp2767
ag21
(g82
tp2768
Rp2769
ag21
(g82
tp2770
Rp2771
ag21
(g82
tp2772
Rp2773
ag21
(g82
tp2774
Rp2775
ag21
(S'e8'
p2776
tp2777
Rp2778
aI9
I01
tp2779
Rp2780
ag70
(g80
(lp2781
g21
(g82
tp2782
Rp2783
ag21
(g82
tp2784
Rp2785
ag21
(g82
tp2786
Rp2787
ag21
(g82
tp2788
Rp2789
ag21
(g82
tp2790
Rp2791
ag21
(g82
tp2792
Rp2793
ag21
(g82
tp2794
Rp2795
ag21
(g82
tp2796
Rp2797
ag21
(S'ej'
p2798
tp2799
Rp2800
aI9
I01
tp2801
Rp2802
ag70
(g80
(lp2803
g21
(g82
tp2804
Rp2805
ag21
(g82
tp2806
Rp2807
ag21
(g82
tp2808
Rp2809
ag21
(g82
tp2810
Rp2811
ag21
(g82
tp2812
Rp2813
ag21
(g82
tp2814
Rp2815
ag21
(g82
tp2816
Rp2817
ag21
(g82
tp2818
Rp2819
ag21
(S'8g'
p2820
tp2821
Rp2822
aI9
I01
tp2823
Rp2824
ag70
(g80
(lp2825
g21
(g82
tp2826
Rp2827
ag21
(g82
tp2828
Rp2829
ag21
(g82
tp2830
Rp2831
ag21
(g82
tp2832
Rp2833
ag21
(g82
tp2834
Rp2835
ag21
(g82
tp2836
Rp2837
ag21
(g82
tp2838
Rp2839
ag21
(g82
tp2840
Rp2841
ag21
(S'ep'
p2842
tp2843
Rp2844
aI9
I01
tp2845
Rp2846
ag70
(g80
(lp2847
g21
(g82
tp2848
Rp2849
ag21
(g82
tp2850
Rp2851
ag21
(g82
tp2852
Rp2853
ag21
(g82
tp2854
Rp2855
ag21
(g82
tp2856
Rp2857
ag21
(g82
tp2858
Rp2859
ag21
(g82
tp2860
Rp2861
ag21
(g82
tp2862
Rp2863
ag21
(S'e1'
p2864
tp2865
Rp2866
aI9
I01
tp2867
Rp2868
ag70
(g80
(lp2869
g21
(g82
tp2870
Rp2871
ag21
(g82
tp2872
Rp2873
ag21
(g82
tp2874
Rp2875
ag21
(g82
tp2876
Rp2877
ag21
(g82
tp2878
Rp2879
ag21
(g82
tp2880
Rp2881
ag21
(g82
tp2882
Rp2883
ag21
(g82
tp2884
Rp2885
ag21
(S'c3'
p2886
tp2887
Rp2888
aI9
I01
tp2889
Rp2890
ag70
(g80
(lp2891
g21
(g82
tp2892
Rp2893
ag21
(g82
tp2894
Rp2895
ag21
(g82
tp2896
Rp2897
ag21
(g82
tp2898
Rp2899
ag21
(g82
tp2900
Rp2901
ag21
(g82
tp2902
Rp2903
ag21
(g82
tp2904
Rp2905
ag21
(g82
tp2906
Rp2907
ag21
(S'8g'
p2908
tp2909
Rp2910
aI9
I01
tp2911
Rp2912
atp2913
.