(csage.matrix.matrix0
unpickle
p0
(csage.matrix.matrix_integer_dense
Matrix_integer_dense
p1
csage.structure.unique_representation
unreduce
p2
(csage.matrix.matrix_space
MatrixSpace
p3
(csage.rings.integer_ring
IntegerRing
p4
(tRp5
I1
I13
I00
S'flint'
p6
tp7
(dp8
tp9
Rp10
I00
NS'2 3 7 h v 15 0 0 0 0 0 0 1'
p11
I0
tp12
Rp13
g0
(g1
g2
(g3
(g5
I6
I13
I00
g6
tp14
(dp15
tp16
Rp17
I00
NS'1 0 0 0 0 0 1 0 0 0 0 0 0 0 1 0 0 0 0 0 1 0 0 0 0 0 0 0 1 0 0 0 0 0 1 0 0 0 0 0 0 0 1 0 0 0 0 0 1 0 0 0 0 0 0 0 1 0 0 0 0 0 1 0 0 0 0 0 0 0 1 0 0 0 0 0 1 0'
p18
I0
tp19
Rp20
csage.rings.integer
make_integer
p21
(S'f'
p22
tp23
Rp24
(lp25
(g21
(S'ka'
p26
tp27
Rp28
g21
(S'1b3'
p29
tp30
Rp31
g21
(S'9n'
p32
tp33
Rp34
g21
(S'7q'
p35
tp36
Rp37
g21
(S'21q'
p38
tp39
Rp40
g21
(S'a6'
p41
tp42
Rp43
tp44
a(I2024
tp45
a(I2537
tp46
a(I3589
tp47
a(I3895
tp48
a(I3939
tp49
a(I4791
tp50
a(I5098
tp51
a(I5329
tp52
a(I5909
tp53
a(I6533
tp54
a(I6799
tp55
a(I7022
tp56
a(I7615
tp57
a(I7776
tp58
a(I7911
tp59
a(lp60
csage.modules.vector_integer_dense
unpickle_v1
p61
(csage.structure.factory
generic_factory_unpickle
p62
(csage.structure.factory
lookup_global
p63
(S'FreeModule'
p64
tp65
Rp66
(I7
I6
tp67
(g5
I13
I00
Ntp68
(dp69
tp70
Rp71
(lp72
g21
(S'0'
p73
tp74
Rp75
ag21
(g73
tp76
Rp77
ag21
(g73
tp78
Rp79
ag21
(g73
tp80
Rp81
ag21
(g73
tp82
Rp83
ag21
(g73
tp84
Rp85
ag21
(g73
tp86
Rp87
ag21
(g73
tp88
Rp89
ag21
(g73
tp90
Rp91
ag21
(g73
tp92
Rp93
ag21
(g73
tp94
Rp95
ag21
(g73
tp96
Rp97
ag21
(g73
tp98
Rp99
aI13
I01
tp100
Rp101
ag61
(g71
(lp102
g21
(g73
tp103
Rp104
ag21
(g73
tp105
Rp106
ag21
(g73
tp107
Rp108
ag21
(g73
tp109
Rp110
ag21
(g73
tp111
Rp112
ag21
(g73
tp113
Rp114
ag21
(g73
tp115
Rp116
ag21
(g73
tp117
Rp118
ag21
(g73
tp119
Rp120
ag21
(g73
tp121
Rp122
ag21
(g73
tp123
Rp124
ag21
(g73
tp125
Rp126
ag21
(g73
tp127
Rp128
aI13
I01
tp129
Rp130
ag61
(g71
(lp131
g21
(g73
tp132
Rp133
ag21
(g73
tp134
Rp135
ag21
(g73
tp136
Rp137
ag21
(g73
tp138
Rp139
ag21
(g73
tp140
Rp141
ag21
(g73
tp142
Rp143
ag21
(g73
tp144
Rp145
ag21
(g73
tp146
Rp147
ag21
(g73
tp148
Rp149
ag21
(g73
tp150
Rp151
ag21
(g73
tp152
Rp153
ag21
(g73
tp154
Rp155
ag21
(g73
tp156
Rp157
aI13
I01
tp158
Rp159
ag61
(g71
(lp160
g21
(g73
tp161
Rp162
ag21
(g73
tp163
Rp164
ag21
(g73
tp165
Rp166
ag21
(g73
tp167
Rp168
ag21
(g73
tp169
Rp170
ag21
(g73
tp171
Rp172
ag21
(g73
tp173
Rp174
ag21
(g73
tp175
Rp176
ag21
(g73
tp177
Rp178
ag21
(g73
tp179
Rp180
ag21
(g73
tp181
Rp182
ag21
(g73
tp183
Rp184
ag21
(g73
tp185
Rp186
aI13
I01
tp187
Rp188
ag61
(g71
(lp189
g21
(g73
tp190
Rp191
ag21
(g73
tp192
Rp193
ag21
(g73
tp194
Rp195
ag21
(g73
tp196
Rp197
ag21
(g73
tp198
Rp199
ag21
(g73
tp200
Rp201
ag21
(g73
tp202
Rp203
ag21
(g73
tp204
Rp205
ag21
(g73
tp206
Rp207
ag21
(g73
tp208
Rp209
ag21
(g73
tp210
Rp211
ag21
(g73
tp212
Rp213
ag21
(g73
tp214
Rp215
aI13
I01
tp216
Rp217
ag61
(g71
(lp218
g21
(g73
tp219
Rp220
ag21
(g73
tp221
Rp222
ag21
(g73
tp223
Rp224
ag21
(g73
tp225
Rp226
ag21
(g73
tp227
Rp228
ag21
(g73
tp229
Rp230
ag21
(g73
tp231
Rp232
ag21
(g73
tp233
Rp234
ag21
(g73
tp235
Rp236
ag21
(g73
tp237
Rp238
ag21
(g73
tp239
Rp240
ag21
(g73
tp241
Rp242
ag21
(g73
tp243
Rp244
aI13
I01
tp245
Rp246
ag61
(g71
(lp247
g21
(g73
tp248
Rp249
ag21
(g73
tp250
Rp251
ag21
(g73
tp252
Rp253
ag21
(g73
tp254
Rp255
ag21
(g73
tp256
Rp257
ag21
(g73
tp258
Rp259
ag21
(g73
tp260
Rp261
ag21
(g73
tp262
Rp263
ag21
(g73
tp264
Rp265
ag21
(g73
tp266
Rp267
ag21
(g73
tp268
Rp269
ag21
(g73
tp270
Rp271
ag21
(g73
tp272
Rp273
aI13
I01
tp274
Rp275
ag61
(g71
(lp276
g21
(g73
tp277
Rp278
ag21
(g73
tp279
Rp280
ag21
(g73
tp281
Rp282
ag21
(g73
tp283
Rp284
ag21
(g73
tp285
Rp286
ag21
(g73
tp287
Rp288
ag21
(g73
tp289
Rp290
ag21
(g73
tp291
Rp292
ag21
(g73
tp293
Rp294
ag21
(g73
tp295
Rp296
ag21
(g73
tp297
Rp298
ag21
(g73
tp299
Rp300
ag21
(g73
tp301
Rp302
aI13
I01
tp303
Rp304
ag61
(g71
(lp305
g21
(g73
tp306
Rp307
ag21
(g73
tp308
Rp309
ag21
(g73
tp310
Rp311
ag21
(g73
tp312
Rp313
ag21
(g73
tp314
Rp315
ag21
(g73
tp316
Rp317
ag21
(g73
tp318
Rp319
ag21
(g73
tp320
Rp321
ag21
(g73
tp322
Rp323
ag21
(g73
tp324
Rp325
ag21
(g73
tp326
Rp327
ag21
(g73
tp328
Rp329
ag21
(g73
tp330
Rp331
aI13
I01
tp332
Rp333
ag61
(g71
(lp334
g21
(g73
tp335
Rp336
ag21
(g73
tp337
Rp338
ag21
(g73
tp339
Rp340
ag21
(g73
tp341
Rp342
ag21
(g73
tp343
Rp344
ag21
(g73
tp345
Rp346
ag21
(g73
tp347
Rp348
ag21
(g73
tp349
Rp350
ag21
(g73
tp351
Rp352
ag21
(g73
tp353
Rp354
ag21
(g73
tp355
Rp356
ag21
(g73
tp357
Rp358
ag21
(g73
tp359
Rp360
aI13
I01
tp361
Rp362
ag61
(g71
(lp363
g21
(g73
tp364
Rp365
ag21
(g73
tp366
Rp367
ag21
(g73
tp368
Rp369
ag21
(g73
tp370
Rp371
ag21
(g73
tp372
Rp373
ag21
(g73
tp374
Rp375
ag21
(g73
tp376
Rp377
ag21
(g73
tp378
Rp379
ag21
(g73
tp380
Rp381
ag21
(g73
tp382
Rp383
ag21
(g73
tp384
Rp385
ag21
(g73
tp386
Rp387
ag21
(g73
tp388
Rp389
aI13
I01
tp390
Rp391
ag61
(g71
(lp392
g21
(g73
tp393
Rp394
ag21
(g73
tp395
Rp396
ag21
(g73
tp397
Rp398
ag21
(g73
tp399
Rp400
ag21
(g73
tp401
Rp402
ag21
(g73
tp403
Rp404
ag21
(g73
tp405
Rp406
ag21
(g73
tp407
Rp408
ag21
(g73
tp409
Rp410
ag21
(g73
tp411
Rp412
ag21
(g73
tp413
Rp414
ag21
(g73
tp415
Rp416
ag21
(g73
tp417
Rp418
aI13
I01
tp419
Rp420
ag61
(g71
(lp421
g21
(g73
tp422
Rp423
ag21
(g73
tp424
Rp425
ag21
(g73
tp426
Rp427
ag21
(g73
tp428
Rp429
ag21
(g73
tp430
Rp431
ag21
(g73
tp432
Rp433
ag21
(g73
tp434
Rp435
ag21
(g73
tp436
Rp437
ag21
(g73
tp438
Rp439
ag21
(g73
tp440
Rp441
ag21
(g73
tp442
Rp443
ag21
(g73
tp444
Rp445
ag21
(g73
tp446
Rp447
aI13
I01
tp448
Rp449
ag61
(g71
(lp450
g21
(g73
tp451
Rp452
ag21
(g73
tp453
Rp454
ag21
(g73
tp455
Rp456
ag21
(g73
tp457
Rp458
ag21
(g73
tp459
Rp460
ag21
(g73
tp461
Rp462
ag21
(g73
tp463
Rp464
ag21
(g73
tp465
Rp466
ag21
(g73
tp467
Rp468
ag21
(g73
tp469
Rp470
ag21
(g73
tp471
Rp472
ag21
(g73
tp473
Rp474
ag21
(g73
tp475
Rp476
aI13
I01
tp477
Rp478
ag61
(g71
(lp479
g21
(g73
tp480
Rp481
ag21
(g73
tp482
Rp483
ag21
(g73
tp484
Rp485
ag21
(g73
tp486
Rp487
ag21
(g73
tp488
Rp489
ag21
(g73
tp490
Rp491
ag21
(g73
tp492
Rp493
ag21
(g73
tp494
Rp495
ag21
(g73
tp496
Rp497
ag21
(g73
tp498
Rp499
ag21
(g73
tp500
Rp501
ag21
(g73
tp502
Rp503
ag21
(g73
tp504
Rp505
aI13
I01
tp506
Rp507
a(lp508
g61
(g71
(lp509
g21
(S'ka'
p510
tp511
Rp512
ag21
(S'1b3'
p513
tp514
Rp515
ag21
(S'9n'
p516
tp517
Rp518
ag21
(S'7q'
p519
tp520
Rp521
ag21
(S'21q'
p522
tp523
Rp524
ag21
(S'a6'
p525
tp526
Rp527
ag21
(S'ka'
p528
tp529
Rp530
ag21
(S'1b3'
p531
tp532
Rp533
ag21
(S'9n'
p534
tp535
Rp536
ag21
(S'7q'
p537
tp538
Rp539
ag21
(S'21q'
p540
tp541
Rp542
ag21
(S'a6'
p543
tp544
Rp545
ag21
(S'1v8'
p546
tp547
Rp548
aI13
I01
tp549
Rp550
ag61
(g71
(lp551
g21
(S'ka'
p552
tp553
Rp554
ag21
(S'1b3'
p555
tp556
Rp557
ag21
(S'9n'
p558
tp559
Rp560
ag21
(S'7q'
p561
tp562
Rp563
ag21
(S'21q'
p564
tp565
Rp566
ag21
(S'a6'
p567
tp568
Rp569
ag21
(S'ka'
p570
tp571
Rp572
ag21
(S'1b3'
p573
tp574
Rp575
ag21
(S'9n'
p576
tp577
Rp578
ag21
(S'7q'
p579
tp580
Rp581
ag21
(S'21q'
p582
tp583
Rp584
ag21
(S'a6'
p585
tp586
Rp587
ag21
(S'2f9'
p588
tp589
Rp590
aI13
I01
tp591
Rp592
ag61
(g71
(lp593
g21
(S'ka'
p594
tp595
Rp596
ag21
(S'1b3'
p597
tp598
Rp599
ag21
(S'9n'
p600
tp601
Rp602
ag21
(S'7q'
p603
tp604
Rp605
ag21
(S'21q'
p606
tp607
Rp608
ag21
(S'a6'
p609
tp610
Rp611
ag21
(S'ka'
p612
tp613
Rp614
ag21
(S'1b3'
p615
tp616
Rp617
ag21
(S'9n'
p618
tp619
Rp620
ag21
(S'7q'
p621
tp622
Rp623
ag21
(S'21q'
p624
tp625
Rp626
ag21
(S'a6'
p627
tp628
Rp629
ag21
(S'3g5'
p630
tp631
Rp632
aI13
I01
tp633
Rp634
ag61
(g71
(lp635
g21
(S'ka'
p636
tp637
Rp638
ag21
(S'1b3'
p639
tp640
Rp641
ag21
(S'9n'
p642
tp643
Rp644
ag21
(S'7q'
p645
tp646
Rp647
ag21
(S'21q'
p648
tp649
Rp650
ag21
(S'a6'
p651
tp652
Rp653
ag21
(S'ka'
p654
tp655
Rp656
ag21
(S'1b3'
p657
tp658
Rp659
ag21
(S'9n'
p660
tp661
Rp662
ag21
(S'7q'
p663
tp664
Rp665
ag21
(S'21q'
p666
tp667
Rp668
ag21
(S'a6'
p669
tp670
Rp671
ag21
(S'3pn'
p672
tp673
Rp674
aI13
I01
tp675
Rp676
ag61
(g71
(lp677
g21
(S'ka'
p678
tp679
Rp680
ag21
(S'1b3'
p681
tp682
Rp683
ag21
(S'9n'
p684
tp685
Rp686
ag21
(S'7q'
p687
tp688
Rp689
ag21
(S'21q'
p690
tp691
Rp692
ag21
(S'a6'
p693
tp694
Rp695
ag21
(S'ka'
p696
tp697
Rp698
ag21
(S'1b3'
p699
tp700
Rp701
ag21
(S'9n'
p702
tp703
Rp704
ag21
(S'7q'
p705
tp706
Rp707
ag21
(S'21q'
p708
tp709
Rp710
ag21
(S'a6'
p711
tp712
Rp713
ag21
(S'3r3'
p714
tp715
Rp716
aI13
I01
tp717
Rp718
ag61
(g71
(lp719
g21
(S'ka'
p720
tp721
Rp722
ag21
(S'1b3'
p723
tp724
Rp725
ag21
(S'9n'
p726
tp727
Rp728
ag21
(S'7q'
p729
tp730
Rp731
ag21
(S'21q'
p732
tp733
Rp734
ag21
(S'a6'
p735
tp736
Rp737
ag21
(S'ka'
p738
tp739
Rp740
ag21
(S'1b3'
p741
tp742
Rp743
ag21
(S'9n'
p744
tp745
Rp746
ag21
(S'7q'
p747
tp748
Rp749
ag21
(S'21q'
p750
tp751
Rp752
ag21
(S'a6'
p753
tp754
Rp755
ag21
(S'4ln'
p756
tp757
Rp758
aI13
I01
tp759
Rp760
ag61
(g71
(lp761
g21
(S'ka'
p762
tp763
Rp764
ag21
(S'1b3'
p765
tp766
Rp767
ag21
(S'9n'
p768
tp769
Rp770
ag21
(S'7q'
p771
tp772
Rp773
ag21
(S'21q'
p774
tp775
Rp776
ag21
(S'a6'
p777
tp778
Rp779
ag21
(S'ka'
p780
tp781
Rp782
ag21
(S'1b3'
p783
tp784
Rp785
ag21
(S'9n'
p786
tp787
Rp788
ag21
(S'7q'
p789
tp790
Rp791
ag21
(S'21q'
p792
tp793
Rp794
ag21
(S'a6'
p795
tp796
Rp797
ag21
(S'4va'
p798
tp799
Rp800
aI13
I01
tp801
Rp802
ag61
(g71
(lp803
g21
(S'ka'
p804
tp805
Rp806
ag21
(S'1b3'
p807
tp808
Rp809
ag21
(S'9n'
p810
tp811
Rp812
ag21
(S'7q'
p813
tp814
Rp815
ag21
(S'21q'
p816
tp817
Rp818
ag21
(S'a6'
p819
tp820
Rp821
ag21
(S'ka'
p822
tp823
Rp824
ag21
(S'1b3'
p825
tp826
Rp827
ag21
(S'9n'
p828
tp829
Rp830
ag21
(S'7q'
p831
tp832
Rp833
ag21
(S'21q'
p834
tp835
Rp836
ag21
(S'a6'
p837
tp838
Rp839
ag21
(S'56h'
p840
tp841
Rp842
aI13
I01
tp843
Rp844
ag61
(g71
(lp845
g21
(S'ka'
p846
tp847
Rp848
ag21
(S'1b3'
p849
tp850
Rp851
ag21
(S'9n'
p852
tp853
Rp854
ag21
(S'7q'
p855
tp856
Rp857
ag21
(S'21q'
p858
tp859
Rp860
ag21
(S'a6'
p861
tp862
Rp863
ag21
(S'ka'
p864
tp865
Rp866
ag21
(S'1b3'
p867
tp868
Rp869
ag21
(S'9n'
p870
tp871
Rp872
ag21
(S'7q'
p873
tp874
Rp875
ag21
(S'21q'
p876
tp877
Rp878
ag21
(S'a6'
p879
tp880
Rp881
ag21
(S'5ol'
p882
tp883
Rp884
aI13
I01
tp885
Rp886
ag61
(g71
(lp887
g21
(S'ka'
p888
tp889
Rp890
ag21
(S'1b3'
p891
tp892
Rp893
ag21
(S'9n'
p894
tp895
Rp896
ag21
(S'7q'
p897
tp898
Rp899
ag21
(S'21q'
p900
tp901
Rp902
ag21
(S'a6'
p903
tp904
Rp905
ag21
(S'ka'
p906
tp907
Rp908
ag21
(S'1b3'
p909
tp910
Rp911
ag21
(S'9n'
p912
tp913
Rp914
ag21
(S'7q'
p915
tp916
Rp917
ag21
(S'21q'
p918
tp919
Rp920
ag21
(S'a6'
p921
tp922
Rp923
ag21
(S'6c5'
p924
tp925
Rp926
aI13
I01
tp927
Rp928
ag61
(g71
(lp929
g21
(S'ka'
p930
tp931
Rp932
ag21
(S'1b3'
p933
tp934
Rp935
ag21
(S'9n'
p936
tp937
Rp938
ag21
(S'7q'
p939
tp940
Rp941
ag21
(S'21q'
p942
tp943
Rp944
ag21
(S'a6'
p945
tp946
Rp947
ag21
(S'ka'
p948
tp949
Rp950
ag21
(S'1b3'
p951
tp952
Rp953
ag21
(S'9n'
p954
tp955
Rp956
ag21
(S'7q'
p957
tp958
Rp959
ag21
(S'21q'
p960
tp961
Rp962
ag21
(S'a6'
p963
tp964
Rp965
ag21
(S'6kf'
p966
tp967
Rp968
aI13
I01
tp969
Rp970
ag61
(g71
(lp971
g21
(S'ka'
p972
tp973
Rp974
ag21
(S'1b3'
p975
tp976
Rp977
ag21
(S'9n'
p978
tp979
Rp980
ag21
(S'7q'
p981
tp982
Rp983
ag21
(S'21q'
p984
tp985
Rp986
ag21
(S'a6'
p987
tp988
Rp989
ag21
(S'ka'
p990
tp991
Rp992
ag21
(S'1b3'
p993
tp994
Rp995
ag21
(S'9n'
p996
tp997
Rp998
ag21
(S'7q'
p999
tp1000
Rp1001
ag21
(S'21q'
p1002
tp1003
Rp1004
ag21
(S'a6'
p1005
tp1006
Rp1007
ag21
(S'6re'
p1008
tp1009
Rp1010
aI13
I01
tp1011
Rp1012
ag61
(g71
(lp1013
g21
(S'ka'
p1014
tp1015
Rp1016
ag21
(S'1b3'
p1017
tp1018
Rp1019
ag21
(S'9n'
p1020
tp1021
Rp1022
ag21
(S'7q'
p1023
tp1024
Rp1025
ag21
(S'21q'
p1026
tp1027
Rp1028
ag21
(S'a6'
p1029
tp1030
Rp1031
ag21
(S'ka'
p1032
tp1033
Rp1034
ag21
(S'1b3'
p1035
tp1036
Rp1037
ag21
(S'9n'
p1038
tp1039
Rp1040
ag21
(S'7q'
p1041
tp1042
Rp1043
ag21
(S'21q'
p1044
tp1045
Rp1046
ag21
(S'a6'
p1047
tp1048
Rp1049
ag21
(S'7dv'
p1050
tp1051
Rp1052
aI13
I01
tp1053
Rp1054
ag61
(g71
(lp1055
g21
(S'ka'
p1056
tp1057
Rp1058
ag21
(S'1b3'
p1059
tp1060
Rp1061
ag21
(S'9n'
p1062
tp1063
Rp1064
ag21
(S'7q'
p1065
tp1066
Rp1067
ag21
(S'21q'
p1068
tp1069
Rp1070
ag21
(S'a6'
p1071
tp1072
Rp1073
ag21
(S'ka'
p1074
tp1075
Rp1076
ag21
(S'1b3'
p1077
tp1078
Rp1079
ag21
(S'9n'
p1080
tp1081
Rp1082
ag21
(S'7q'
p1083
tp1084
Rp1085
ag21
(S'21q'
p1086
tp1087
Rp1088
ag21
(S'a6'
p1089
tp1090
Rp1091
ag21
(S'7j0'
p1092
tp1093
Rp1094
aI13
I01
tp1095
Rp1096
ag61
(g71
(lp1097
g21
(S'ka'
p1098
tp1099
Rp1100
ag21
(S'1b3'
p1101
tp1102
Rp1103
ag21
(S'9n'
p1104
tp1105
Rp1106
ag21
(S'7q'
p1107
tp1108
Rp1109
ag21
(S'21q'
p1110
tp1111
Rp1112
ag21
(S'a6'
p1113
tp1114
Rp1115
ag21
(S'ka'
p1116
tp1117
Rp1118
ag21
(S'1b3'
p1119
tp1120
Rp1121
ag21
(S'9n'
p1122
tp1123
Rp1124
ag21
(S'7q'
p1125
tp1126
Rp1127
ag21
(S'21q'
p1128
tp1129
Rp1130
ag21
(S'a6'
p1131
tp1132
Rp1133
ag21
(S'7n7'
p1134
tp1135
Rp1136
aI13
I01
tp1137
Rp1138
a(lp1139
g61
(g71
(lp1140
g21
(g73
tp1141
Rp1142
ag21
(g73
tp1143
Rp1144
ag21
(g73
tp1145
Rp1146
ag21
(g73
tp1147
Rp1148
ag21
(g73
tp1149
Rp1150
ag21
(g73
tp1151
Rp1152
ag21
(S'2'
p1153
tp1154
Rp1155
ag21
(S'3'
p1156
tp1157
Rp1158
ag21
(S'15'
p1159
tp1160
Rp1161
ag21
(S'7'
p1162
tp1163
Rp1164
ag21
(S'h'
p1165
tp1166
Rp1167
ag21
(S'v'
p1168
tp1169
Rp1170
ag21
(g73
tp1171
Rp1172
aI13
I01
tp1173
Rp1174
ag61
(g71
(lp1175
g21
(g73
tp1176
Rp1177
ag21
(g73
tp1178
Rp1179
ag21
(g73
tp1180
Rp1181
ag21
(g73
tp1182
Rp1183
ag21
(g73
tp1184
Rp1185
ag21
(g73
tp1186
Rp1187
ag21
(g1153
tp1188
Rp1189
ag21
(g1156
tp1190
Rp1191
ag21
(S'15'
p1192
tp1193
Rp1194
ag21
(g1162
tp1195
Rp1196
ag21
(g1165
tp1197
Rp1198
ag21
(g1168
tp1199
Rp1200
ag21
(g73
tp1201
Rp1202
aI13
I01
tp1203
Rp1204
ag61
(g71
(lp1205
g21
(g73
tp1206
Rp1207
ag21
(g73
tp1208
Rp1209
ag21
(g73
tp1210
Rp1211
ag21
(g73
tp1212
Rp1213
ag21
(g73
tp1214
Rp1215
ag21
(g73
tp1216
Rp1217
ag21
(g1153
tp1218
Rp1219
ag21
(g1156
tp1220
Rp1221
ag21
(S'15'
p1222
tp1223
Rp1224
ag21
(g1162
tp1225
Rp1226
ag21
(g1165
tp1227
Rp1228
ag21
(g1168
tp1229
Rp1230
ag21
(g73
tp1231
Rp1232
aI13
I01
tp1233
Rp1234
ag61
(g71
(lp1235
g21
(g73
tp1236
Rp1237
ag21
(g73
tp1238
Rp1239
ag21
(g73
tp1240
Rp1241
ag21
(g73
tp1242
Rp1243
ag21
(g73
tp1244
Rp1245
ag21
(g73
tp1246
Rp1247
ag21
(g1153
tp1248
Rp1249
ag21
(g1156
tp1250
Rp1251
ag21
(S'15'
p1252
tp1253
Rp1254
ag21
(g1162
tp1255
Rp1256
ag21
(g1165
tp1257
Rp1258
ag21
(g1168
tp1259
Rp1260
ag21
(g73
tp1261
Rp1262
aI13
I01
tp1263
Rp1264
ag61
(g71
(lp1265
g21
(g73
tp1266
Rp1267
ag21
(g73
tp1268
Rp1269
ag21
(g73
tp1270
Rp1271
ag21
(g73
tp1272
Rp1273
ag21
(g73
tp1274
Rp1275
ag21
(g73
tp1276
Rp1277
ag21
(g1153
tp1278
Rp1279
ag21
(g1156
tp1280
Rp1281
ag21
(S'15'
p1282
tp1283
Rp1284
ag21
(g1162
tp1285
Rp1286
ag21
(g1165
tp1287
Rp1288
ag21
(g1168
tp1289
Rp1290
ag21
(g73
tp1291
Rp1292
aI13
I01
tp1293
Rp1294
ag61
(g71
(lp1295
g21
(g73
tp1296
Rp1297
ag21
(g73
tp1298
Rp1299
ag21
(g73
tp1300
Rp1301
ag21
(g73
tp1302
Rp1303
ag21
(g73
tp1304
Rp1305
ag21
(g73
tp1306
Rp1307
ag21
(g1153
tp1308
Rp1309
ag21
(g1156
tp1310
Rp1311
ag21
(S'15'
p1312
tp1313
Rp1314
ag21
(g1162
tp1315
Rp1316
ag21
(g1165
tp1317
Rp1318
ag21
(g1168
tp1319
Rp1320
ag21
(g73
tp1321
Rp1322
aI13
I01
tp1323
Rp1324
ag61
(g71
(lp1325
g21
(g73
tp1326
Rp1327
ag21
(g73
tp1328
Rp1329
ag21
(g73
tp1330
Rp1331
ag21
(g73
tp1332
Rp1333
ag21
(g73
tp1334
Rp1335
ag21
(g73
tp1336
Rp1337
ag21
(g1153
tp1338
Rp1339
ag21
(g1156
tp1340
Rp1341
ag21
(S'15'
p1342
tp1343
Rp1344
ag21
(g1162
tp1345
Rp1346
ag21
(g1165
tp1347
Rp1348
ag21
(g1168
tp1349
Rp1350
ag21
(g73
tp1351
Rp1352
aI13
I01
tp1353
Rp1354
ag61
(g71
(lp1355
g21
(g73
tp1356
Rp1357
ag21
(g73
tp1358
Rp1359
ag21
(g73
tp1360
Rp1361
ag21
(g73
tp1362
Rp1363
ag21
(g73
tp1364
Rp1365
ag21
(g73
tp1366
Rp1367
ag21
(g1153
tp1368
Rp1369
ag21
(g1156
tp1370
Rp1371
ag21
(S'15'
p1372
tp1373
Rp1374
ag21
(g1162
tp1375
Rp1376
ag21
(g1165
tp1377
Rp1378
ag21
(g1168
tp1379
Rp1380
ag21
(g73
tp1381
Rp1382
aI13
I01
tp1383
Rp1384
ag61
(g71
(lp1385
g21
(g73
tp1386
Rp1387
ag21
(g73
tp1388
Rp1389
ag21
(g73
tp1390
Rp1391
ag21
(g73
tp1392
Rp1393
ag21
(g73
tp1394
Rp1395
ag21
(g73
tp1396
Rp1397
ag21
(g1153
tp1398
Rp1399
ag21
(g1156
tp1400
Rp1401
ag21
(S'15'
p1402
tp1403
Rp1404
ag21
(g1162
tp1405
Rp1406
ag21
(g1165
tp1407
Rp1408
ag21
(g1168
tp1409
Rp1410
ag21
(g73
tp1411
Rp1412
aI13
I01
tp1413
Rp1414
ag61
(g71
(lp1415
g21
(g73
tp1416
Rp1417
ag21
(g73
tp1418
Rp1419
ag21
(g73
tp1420
Rp1421
ag21
(g73
tp1422
Rp1423
ag21
(g73
tp1424
Rp1425
ag21
(g73
tp1426
Rp1427
ag21
(g1153
tp1428
Rp1429
ag21
(g1156
tp1430
Rp1431
ag21
(S'15'
p1432
tp1433
Rp1434
ag21
(g1162
tp1435
Rp1436
ag21
(g1165
tp1437
Rp1438
ag21
(g1168
tp1439
Rp1440
ag21
(g73
tp1441
Rp1442
aI13
I01
tp1443
Rp1444
ag61
(g71
(lp1445
g21
(g73
tp1446
Rp1447
ag21
(g73
tp1448
Rp1449
ag21
(g73
tp1450
Rp1451
ag21
(g73
tp1452
Rp1453
ag21
(g73
tp1454
Rp1455
ag21
(g73
tp1456
Rp1457
ag21
(g1153
tp1458
Rp1459
ag21
(g1156
tp1460
Rp1461
ag21
(S'15'
p1462
tp1463
Rp1464
ag21
(g1162
tp1465
Rp1466
ag21
(g1165
tp1467
Rp1468
ag21
(g1168
tp1469
Rp1470
ag21
(g73
tp1471
Rp1472
aI13
I01
tp1473
Rp1474
ag61
(g71
(lp1475
g21
(g73
tp1476
Rp1477
ag21
(g73
tp1478
Rp1479
ag21
(g73
tp1480
Rp1481
ag21
(g73
tp1482
Rp1483
ag21
(g73
tp1484
Rp1485
ag21
(g73
tp1486
Rp1487
ag21
(g1153
tp1488
Rp1489
ag21
(g1156
tp1490
Rp1491
ag21
(S'15'
p1492
tp1493
Rp1494
ag21
(g1162
tp1495
Rp1496
ag21
(g1165
tp1497
Rp1498
ag21
(g1168
tp1499
Rp1500
ag21
(g73
tp1501
Rp1502
aI13
I01
tp1503
Rp1504
ag61
(g71
(lp1505
g21
(g73
tp1506
Rp1507
ag21
(g73
tp1508
Rp1509
ag21
(g73
tp1510
Rp1511
ag21
(g73
tp1512
Rp1513
ag21
(g73
tp1514
Rp1515
ag21
(g73
tp1516
Rp1517
ag21
(g1153
tp1518
Rp1519
ag21
(g1156
tp1520
Rp1521
ag21
(S'15'
p1522
tp1523
Rp1524
ag21
(g1162
tp1525
Rp1526
ag21
(g1165
tp1527
Rp1528
ag21
(g1168
tp1529
Rp1530
ag21
(g73
tp1531
Rp1532
aI13
I01
tp1533
Rp1534
ag61
(g71
(lp1535
g21
(g73
tp1536
Rp1537
ag21
(g73
tp1538
Rp1539
ag21
(g73
tp1540
Rp1541
ag21
(g73
tp1542
Rp1543
ag21
(g73
tp1544
Rp1545
ag21
(g73
tp1546
Rp1547
ag21
(g1153
tp1548
Rp1549
ag21
(g1156
tp1550
Rp1551
ag21
(S'15'
p1552
tp1553
Rp1554
ag21
(g1162
tp1555
Rp1556
ag21
(g1165
tp1557
Rp1558
ag21
(g1168
tp1559
Rp1560
ag21
(g73
tp1561
Rp1562
aI13
I01
tp1563
Rp1564
ag61
(g71
(lp1565
g21
(g73
tp1566
Rp1567
ag21
(g73
tp1568
Rp1569
ag21
(g73
tp1570
Rp1571
ag21
(g73
tp1572
Rp1573
ag21
(g73
tp1574
Rp1575
ag21
(g73
tp1576
Rp1577
ag21
(g1153
tp1578
Rp1579
ag21
(g1156
tp1580
Rp1581
ag21
(S'15'
p1582
tp1583
Rp1584
ag21
(g1162
tp1585
Rp1586
ag21
(g1165
tp1587
Rp1588
ag21
(g1168
tp1589
Rp1590
ag21
(g73
tp1591
Rp1592
aI13
I01
tp1593
Rp1594
a(lp1595
g61
(g71
(lp1596
g21
(g73
tp1597
Rp1598
ag21
(g73
tp1599
Rp1600
ag21
(g73
tp1601
Rp1602
ag21
(g73
tp1603
Rp1604
ag21
(g73
tp1605
Rp1606
ag21
(g73
tp1607
Rp1608
ag21
(S'ka'
p1609
tp1610
Rp1611
ag21
(S'1b3'
p1612
tp1613
Rp1614
ag21
(S'9n'
p1615
tp1616
Rp1617
ag21
(S'7q'
p1618
tp1619
Rp1620
ag21
(S'21q'
p1621
tp1622
Rp1623
ag21
(S'a6'
p1624
tp1625
Rp1626
ag21
(S'1v8'
p1627
tp1628
Rp1629
aI13
I01
tp1630
Rp1631
ag61
(g71
(lp1632
g21
(g73
tp1633
Rp1634
ag21
(g73
tp1635
Rp1636
ag21
(g73
tp1637
Rp1638
ag21
(g73
tp1639
Rp1640
ag21
(g73
tp1641
Rp1642
ag21
(g73
tp1643
Rp1644
ag21
(g73
tp1645
Rp1646
ag21
(g73
tp1647
Rp1648
ag21
(g73
tp1649
Rp1650
ag21
(g73
tp1651
Rp1652
ag21
(g73
tp1653
Rp1654
ag21
(g73
tp1655
Rp1656
ag21
(S'2f9'
p1657
tp1658
Rp1659
aI13
I01
tp1660
Rp1661
ag61
(g71
(lp1662
g21
(g73
tp1663
Rp1664
ag21
(g73
tp1665
Rp1666
ag21
(g73
tp1667
Rp1668
ag21
(g73
tp1669
Rp1670
ag21
(g73
tp1671
Rp1672
ag21
(g73
tp1673
Rp1674
ag21
(g73
tp1675
Rp1676
ag21
(g73
tp1677
Rp1678
ag21
(g73
tp1679
Rp1680
ag21
(g73
tp1681
Rp1682
ag21
(g73
tp1683
Rp1684
ag21
(g73
tp1685
Rp1686
ag21
(S'3g5'
p1687
tp1688
Rp1689
aI13
I01
tp1690
Rp1691
ag61
(g71
(lp1692
g21
(g73
tp1693
Rp1694
ag21
(g73
tp1695
Rp1696
ag21
(g73
tp1697
Rp1698
ag21
(g73
tp1699
Rp1700
ag21
(g73
tp1701
Rp1702
ag21
(g73
tp1703
Rp1704
ag21
(g73
tp1705
Rp1706
ag21
(g73
tp1707
Rp1708
ag21
(g73
tp1709
Rp1710
ag21
(g73
tp1711
Rp1712
ag21
(g73
tp1713
Rp1714
ag21
(g73
tp1715
Rp1716
ag21
(S'3pn'
p1717
tp1718
Rp1719
aI13
I01
tp1720
Rp1721
ag61
(g71
(lp1722
g21
(g73
tp1723
Rp1724
ag21
(g73
tp1725
Rp1726
ag21
(g73
tp1727
Rp1728
ag21
(g73
tp1729
Rp1730
ag21
(g73
tp1731
Rp1732
ag21
(g73
tp1733
Rp1734
ag21
(g73
tp1735
Rp1736
ag21
(g73
tp1737
Rp1738
ag21
(g73
tp1739
Rp1740
ag21
(g73
tp1741
Rp1742
ag21
(g73
tp1743
Rp1744
ag21
(g73
tp1745
Rp1746
ag21
(S'3r3'
p1747
tp1748
Rp1749
aI13
I01
tp1750
Rp1751
ag61
(g71
(lp1752
g21
(g73
tp1753
Rp1754
ag21
(g73
tp1755
Rp1756
ag21
(g73
tp1757
Rp1758
ag21
(g73
tp1759
Rp1760
ag21
(g73
tp1761
Rp1762
ag21
(g73
tp1763
Rp1764
ag21
(g73
tp1765
Rp1766
ag21
(g73
tp1767
Rp1768
ag21
(g73
tp1769
Rp1770
ag21
(g73
tp1771
Rp1772
ag21
(g73
tp1773
Rp1774
ag21
(g73
tp1775
Rp1776
ag21
(S'4ln'
p1777
tp1778
Rp1779
aI13
I01
tp1780
Rp1781
ag61
(g71
(lp1782
g21
(g73
tp1783
Rp1784
ag21
(g73
tp1785
Rp1786
ag21
(g73
tp1787
Rp1788
ag21
(g73
tp1789
Rp1790
ag21
(g73
tp1791
Rp1792
ag21
(g73
tp1793
Rp1794
ag21
(g73
tp1795
Rp1796
ag21
(g73
tp1797
Rp1798
ag21
(g73
tp1799
Rp1800
ag21
(g73
tp1801
Rp1802
ag21
(g73
tp1803
Rp1804
ag21
(g73
tp1805
Rp1806
ag21
(S'4va'
p1807
tp1808
Rp1809
aI13
I01
tp1810
Rp1811
ag61
(g71
(lp1812
g21
(g73
tp1813
Rp1814
ag21
(g73
tp1815
Rp1816
ag21
(g73
tp1817
Rp1818
ag21
(g73
tp1819
Rp1820
ag21
(g73
tp1821
Rp1822
ag21
(g73
tp1823
Rp1824
ag21
(g73
tp1825
Rp1826
ag21
(g73
tp1827
Rp1828
ag21
(g73
tp1829
Rp1830
ag21
(g73
tp1831
Rp1832
ag21
(g73
tp1833
Rp1834
ag21
(g73
tp1835
Rp1836
ag21
(S'56h'
p1837
tp1838
Rp1839
aI13
I01
tp1840
Rp1841
ag61
(g71
(lp1842
g21
(g73
tp1843
Rp1844
ag21
(g73
tp1845
Rp1846
ag21
(g73
tp1847
Rp1848
ag21
(g73
tp1849
Rp1850
ag21
(g73
tp1851
Rp1852
ag21
(g73
tp1853
Rp1854
ag21
(g73
tp1855
Rp1856
ag21
(g73
tp1857
Rp1858
ag21
(g73
tp1859
Rp1860
ag21
(g73
tp1861
Rp1862
ag21
(g73
tp1863
Rp1864
ag21
(g73
tp1865
Rp1866
ag21
(S'5ol'
p1867
tp1868
Rp1869
aI13
I01
tp1870
Rp1871
ag61
(g71
(lp1872
g21
(g73
tp1873
Rp1874
ag21
(g73
tp1875
Rp1876
ag21
(g73
tp1877
Rp1878
ag21
(g73
tp1879
Rp1880
ag21
(g73
tp1881
Rp1882
ag21
(g73
tp1883
Rp1884
ag21
(g73
tp1885
Rp1886
ag21
(g73
tp1887
Rp1888
ag21
(g73
tp1889
Rp1890
ag21
(g73
tp1891
Rp1892
ag21
(g73
tp1893
Rp1894
ag21
(g73
tp1895
Rp1896
ag21
(S'6c5'
p1897
tp1898
Rp1899
aI13
I01
tp1900
Rp1901
ag61
(g71
(lp1902
g21
(g73
tp1903
Rp1904
ag21
(g73
tp1905
Rp1906
ag21
(g73
tp1907
Rp1908
ag21
(g73
tp1909
Rp1910
ag21
(g73
tp1911
Rp1912
ag21
(g73
tp1913
Rp1914
ag21
(g73
tp1915
Rp1916
ag21
(g73
tp1917
Rp1918
ag21
(g73
tp1919
Rp1920
ag21
(g73
tp1921
Rp1922
ag21
(g73
tp1923
Rp1924
ag21
(g73
tp1925
Rp1926
ag21
(S'6kf'
p1927
tp1928
Rp1929
aI13
I01
tp1930
Rp1931
ag61
(g71
(lp1932
g21
(g73
tp1933
Rp1934
ag21
(g73
tp1935
Rp1936
ag21
(g73
tp1937
Rp1938
ag21
(g73
tp1939
Rp1940
ag21
(g73
tp1941
Rp1942
ag21
(g73
tp1943
Rp1944
ag21
(g73
tp1945
Rp1946
ag21
(g73
tp1947
Rp1948
ag21
(g73
tp1949
Rp1950
ag21
(g73
tp1951
Rp1952
ag21
(g73
tp1953
Rp1954
ag21
(g73
tp1955
Rp1956
ag21
(S'6re'
p1957
tp1958
Rp1959
aI13
I01
tp1960
Rp1961
ag61
(g71
(lp1962
g21
(g73
tp1963
Rp1964
ag21
(g73
tp1965
Rp1966
ag21
(g73
tp1967
Rp1968
ag21
(g73
tp1969
Rp1970
ag21
(g73
tp1971
Rp1972
ag21
(g73
tp1973
Rp1974
ag21
(g73
tp1975
Rp1976
ag21
(g73
tp1977
Rp1978
ag21
(g73
tp1979
Rp1980
ag21
(g73
tp1981
Rp1982
ag21
(g73
tp1983
Rp1984
ag21
(g73
tp1985
Rp1986
ag21
(S'7dv'
p1987
tp1988
Rp1989
aI13
I01
tp1990
Rp1991
ag61
(g71
(lp1992
g21
(g73
tp1993
Rp1994
ag21
(g73
tp1995
Rp1996
ag21
(g73
tp1997
Rp1998
ag21
(g73
tp1999
Rp2000
ag21
(g73
tp2001
Rp2002
ag21
(g73
tp2003
Rp2004
ag21
(g73
tp2005
Rp2006
ag21
(g73
tp2007
Rp2008
ag21
(g73
tp2009
Rp2010
ag21
(g73
tp2011
Rp2012
ag21
(g73
tp2013
Rp2014
ag21
(g73
tp2015
Rp2016
ag21
(S'7j0'
p2017
tp2018
Rp2019
aI13
I01
tp2020
Rp2021
ag61
(g71
(lp2022
g21
(g73
tp2023
Rp2024
ag21
(g73
tp2025
Rp2026
ag21
(g73
tp2027
Rp2028
ag21
(g73
tp2029
Rp2030
ag21
(g73
tp2031
Rp2032
ag21
(g73
tp2033
Rp2034
ag21
(g73
tp2035
Rp2036
ag21
(g73
tp2037
Rp2038
ag21
(g73
tp2039
Rp2040
ag21
(g73
tp2041
Rp2042
ag21
(g73
tp2043
Rp2044
ag21
(g73
tp2045
Rp2046
ag21
(S'7n7'
p2047
tp2048
Rp2049
aI13
I01
tp2050
Rp2051
atp2052
.