(csage.matrix.matrix0
unpickle
p0
(csage.matrix.matrix_integer_dense
Matrix_integer_dense
p1
csage.structure.unique_representation
unreduce
p2
(csage.matrix.matrix_space
MatrixSpace
p3
(csage.rings.integer_ring
IntegerRing
p4
(tRp5
I1
I9
I00
S'flint'
p6
tp7
(dp8
tp9
Rp10
I00
NS'2 3 7 n 0 0 0 0 1'
p11
I0
tp12
Rp13
g0
(g1
g2
(g3
(g5
I4
I9
I00
g6
tp14
(dp15
tp16
Rp17
I00
NS'1 0 0 0 1 0 0 0 0 0 1 0 0 0 1 0 0 0 0 0 1 0 0 0 1 0 0 0 0 0 1 0 0 0 1 0'
p18
I0
tp19
Rp20
csage.rings.integer
make_integer
p21
(S'm'
p22
tp23
Rp24
(lp25
(g21
(S'17a'
p26
tp27
Rp28
g21
(S'3ns'
p29
tp30
Rp31
g21
(S'7sm'
p32
tp33
Rp34
g21
(S'j4'
p35
tp36
Rp37
tp38
a(I1755
tp39
a(I3767
tp40
a(I1921
tp41
a(I2586
tp42
a(I4055
tp43
a(I1102
tp44
a(I1157
tp45
a(I4045
tp46
a(I2821
tp47
a(I4989
tp48
a(I1258
tp49
a(I2292
tp50
a(I2158
tp51
a(I2058
tp52
a(I4653
tp53
a(I3352
tp54
a(I4429
tp55
a(I2048
tp56
a(I4576
tp57
a(I3947
tp58
a(I1183
tp59
a(I4336
tp60
a(lp61
csage.modules.vector_integer_dense
unpickle_v1
p62
(csage.structure.factory
generic_factory_unpickle
p63
(csage.structure.factory
lookup_global
p64
(S'FreeModule'
p65
tp66
Rp67
(I7
I6
tp68
(g5
I9
I00
Ntp69
(dp70
tp71
Rp72
(lp73
g21
(S'0'
p74
tp75
Rp76
ag21
(g74
tp77
Rp78
ag21
(g74
tp79
Rp80
ag21
(g74
tp81
Rp82
ag21
(g74
tp83
Rp84
ag21
(g74
tp85
Rp86
ag21
(g74
tp87
Rp88
ag21
(g74
tp89
Rp90
ag21
(g74
tp91
Rp92
aI9
I01
tp93
Rp94
ag62
(g72
(lp95
g21
(g74
tp96
Rp97
ag21
(g74
tp98
Rp99
ag21
(g74
tp100
Rp101
ag21
(g74
tp102
Rp103
ag21
(g74
tp104
Rp105
ag21
(g74
tp106
Rp107
ag21
(g74
tp108
Rp109
ag21
(g74
tp110
Rp111
ag21
(g74
tp112
Rp113
aI9
I01
tp114
Rp115
ag62
(g72
(lp116
g21
(g74
tp117
Rp118
ag21
(g74
tp119
Rp120
ag21
(g74
tp121
Rp122
ag21
(g74
tp123
Rp124
ag21
(g74
tp125
Rp126
ag21
(g74
tp127
Rp128
ag21
(g74
tp129
Rp130
ag21
(g74
tp131
Rp132
ag21
(g74
tp133
Rp134
aI9
I01
tp135
Rp136
ag62
(g72
(lp137
g21
(g74
tp138
Rp139
ag21
(g74
tp140
Rp141
ag21
(g74
tp142
Rp143
ag21
(g74
tp144
Rp145
ag21
(g74
tp146
Rp147
ag21
(g74
tp148
Rp149
ag21
(g74
tp150
Rp151
ag21
(g74
tp152
Rp153
ag21
(g74
tp154
Rp155
aI9
I01
tp156
Rp157
ag62
(g72
(lp158
g21
(g74
tp159
Rp160
ag21
(g74
tp161
Rp162
ag21
(g74
tp163
Rp164
ag21
(g74
tp165
Rp166
ag21
(g74
tp167
Rp168
ag21
(g74
tp169
Rp170
ag21
(g74
tp171
Rp172
ag21
(g74
tp173
Rp174
ag21
(g74
tp175
Rp176
aI9
I01
tp177
Rp178
ag62
(g72
(lp179
g21
(g74
tp180
Rp181
ag21
(g74
tp182
Rp183
ag21
(g74
tp184
Rp185
ag21
(g74
tp186
Rp187
ag21
(g74
tp188
Rp189
ag21
(g74
tp190
Rp191
ag21
(g74
tp192
Rp193
ag21
(g74
tp194
Rp195
ag21
(g74
tp196
Rp197
aI9
I01
tp198
Rp199
ag62
(g72
(lp200
g21
(g74
tp201
Rp202
ag21
(g74
tp203
Rp204
ag21
(g74
tp205
Rp206
ag21
(g74
tp207
Rp208
ag21
(g74
tp209
Rp210
ag21
(g74
tp211
Rp212
ag21
(g74
tp213
Rp214
ag21
(g74
tp215
Rp216
ag21
(g74
tp217
Rp218
aI9
I01
tp219
Rp220
ag62
(g72
(lp221
g21
(g74
tp222
Rp223
ag21
(g74
tp224
Rp225
ag21
(g74
tp226
Rp227
ag21
(g74
tp228
Rp229
ag21
(g74
tp230
Rp231
ag21
(g74
tp232
Rp233
ag21
(g74
tp234
Rp235
ag21
(g74
tp236
Rp237
ag21
(g74
tp238
Rp239
aI9
I01
tp240
Rp241
ag62
(g72
(lp242
g21
(g74
tp243
Rp244
ag21
(g74
tp245
Rp246
ag21
(g74
tp247
Rp248
ag21
(g74
tp249
Rp250
ag21
(g74
tp251
Rp252
ag21
(g74
tp253
Rp254
ag21
(g74
tp255
Rp256
ag21
(g74
tp257
Rp258
ag21
(g74
tp259
Rp260
aI9
I01
tp261
Rp262
ag62
(g72
(lp263
g21
(g74
tp264
Rp265
ag21
(g74
tp266
Rp267
ag21
(g74
tp268
Rp269
ag21
(g74
tp270
Rp271
ag21
(g74
tp272
Rp273
ag21
(g74
tp274
Rp275
ag21
(g74
tp276
Rp277
ag21
(g74
tp278
Rp279
ag21
(g74
tp280
Rp281
aI9
I01
tp282
Rp283
ag62
(g72
(lp284
g21
(g74
tp285
Rp286
ag21
(g74
tp287
Rp288
ag21
(g74
tp289
Rp290
ag21
(g74
tp291
Rp292
ag21
(g74
tp293
Rp294
ag21
(g74
tp295
Rp296
ag21
(g74
tp297
Rp298
ag21
(g74
tp299
Rp300
ag21
(g74
tp301
Rp302
aI9
I01
tp303
Rp304
ag62
(g72
(lp305
g21
(g74
tp306
Rp307
ag21
(g74
tp308
Rp309
ag21
(g74
tp310
Rp311
ag21
(g74
tp312
Rp313
ag21
(g74
tp314
Rp315
ag21
(g74
tp316
Rp317
ag21
(g74
tp318
Rp319
ag21
(g74
tp320
Rp321
ag21
(g74
tp322
Rp323
aI9
I01
tp324
Rp325
ag62
(g72
(lp326
g21
(g74
tp327
Rp328
ag21
(g74
tp329
Rp330
ag21
(g74
tp331
Rp332
ag21
(g74
tp333
Rp334
ag21
(g74
tp335
Rp336
ag21
(g74
tp337
Rp338
ag21
(g74
tp339
Rp340
ag21
(g74
tp341
Rp342
ag21
(g74
tp343
Rp344
aI9
I01
tp345
Rp346
ag62
(g72
(lp347
g21
(g74
tp348
Rp349
ag21
(g74
tp350
Rp351
ag21
(g74
tp352
Rp353
ag21
(g74
tp354
Rp355
ag21
(g74
tp356
Rp357
ag21
(g74
tp358
Rp359
ag21
(g74
tp360
Rp361
ag21
(g74
tp362
Rp363
ag21
(g74
tp364
Rp365
aI9
I01
tp366
Rp367
ag62
(g72
(lp368
g21
(g74
tp369
Rp370
ag21
(g74
tp371
Rp372
ag21
(g74
tp373
Rp374
ag21
(g74
tp375
Rp376
ag21
(g74
tp377
Rp378
ag21
(g74
tp379
Rp380
ag21
(g74
tp381
Rp382
ag21
(g74
tp383
Rp384
ag21
(g74
tp385
Rp386
aI9
I01
tp387
Rp388
ag62
(g72
(lp389
g21
(g74
tp390
Rp391
ag21
(g74
tp392
Rp393
ag21
(g74
tp394
Rp395
ag21
(g74
tp396
Rp397
ag21
(g74
tp398
Rp399
ag21
(g74
tp400
Rp401
ag21
(g74
tp402
Rp403
ag21
(g74
tp404
Rp405
ag21
(g74
tp406
Rp407
aI9
I01
tp408
Rp409
ag62
(g72
(lp410
g21
(g74
tp411
Rp412
ag21
(g74
tp413
Rp414
ag21
(g74
tp415
Rp416
ag21
(g74
tp417
Rp418
ag21
(g74
tp419
Rp420
ag21
(g74
tp421
Rp422
ag21
(g74
tp423
Rp424
ag21
(g74
tp425
Rp426
ag21
(g74
tp427
Rp428
aI9
I01
tp429
Rp430
ag62
(g72
(lp431
g21
(g74
tp432
Rp433
ag21
(g74
tp434
Rp435
ag21
(g74
tp436
Rp437
ag21
(g74
tp438
Rp439
ag21
(g74
tp440
Rp441
ag21
(g74
tp442
Rp443
ag21
(g74
tp444
Rp445
ag21
(g74
tp446
Rp447
ag21
(g74
tp448
Rp449
aI9
I01
tp450
Rp451
ag62
(g72
(lp452
g21
(g74
tp453
Rp454
ag21
(g74
tp455
Rp456
ag21
(g74
tp457
Rp458
ag21
(g74
tp459
Rp460
ag21
(g74
tp461
Rp462
ag21
(g74
tp463
Rp464
ag21
(g74
tp465
Rp466
ag21
(g74
tp467
Rp468
ag21
(g74
tp469
Rp470
aI9
I01
tp471
Rp472
ag62
(g72
(lp473
g21
(g74
tp474
Rp475
ag21
(g74
tp476
Rp477
ag21
(g74
tp478
Rp479
ag21
(g74
tp480
Rp481
ag21
(g74
tp482
Rp483
ag21
(g74
tp484
Rp485
ag21
(g74
tp486
Rp487
ag21
(g74
tp488
Rp489
ag21
(g74
tp490
Rp491
aI9
I01
tp492
Rp493
ag62
(g72
(lp494
g21
(g74
tp495
Rp496
ag21
(g74
tp497
Rp498
ag21
(g74
tp499
Rp500
ag21
(g74
tp501
Rp502
ag21
(g74
tp503
Rp504
ag21
(g74
tp505
Rp506
ag21
(g74
tp507
Rp508
ag21
(g74
tp509
Rp510
ag21
(g74
tp511
Rp512
aI9
I01
tp513
Rp514
ag62
(g72
(lp515
g21
(g74
tp516
Rp517
ag21
(g74
tp518
Rp519
ag21
(g74
tp520
Rp521
ag21
(g74
tp522
Rp523
ag21
(g74
tp524
Rp525
ag21
(g74
tp526
Rp527
ag21
(g74
tp528
Rp529
ag21
(g74
tp530
Rp531
ag21
(g74
tp532
Rp533
aI9
I01
tp534
Rp535
a(lp536
g62
(g72
(lp537
g21
(S'17a'
p538
tp539
Rp540
ag21
(S'3ns'
p541
tp542
Rp543
ag21
(S'7sm'
p544
tp545
Rp546
ag21
(S'j4'
p547
tp548
Rp549
ag21
(S'17a'
p550
tp551
Rp552
ag21
(S'3ns'
p553
tp554
Rp555
ag21
(S'7sm'
p556
tp557
Rp558
ag21
(S'j4'
p559
tp560
Rp561
ag21
(S'1mr'
p562
tp563
Rp564
aI9
I01
tp565
Rp566
ag62
(g72
(lp567
g21
(S'17a'
p568
tp569
Rp570
ag21
(S'3ns'
p571
tp572
Rp573
ag21
(S'7sm'
p574
tp575
Rp576
ag21
(S'j4'
p577
tp578
Rp579
ag21
(S'17a'
p580
tp581
Rp582
ag21
(S'3ns'
p583
tp584
Rp585
ag21
(S'7sm'
p586
tp587
Rp588
ag21
(S'j4'
p589
tp590
Rp591
ag21
(S'3ln'
p592
tp593
Rp594
aI9
I01
tp595
Rp596
ag62
(g72
(lp597
g21
(S'17a'
p598
tp599
Rp600
ag21
(S'3ns'
p601
tp602
Rp603
ag21
(S'7sm'
p604
tp605
Rp606
ag21
(S'j4'
p607
tp608
Rp609
ag21
(S'17a'
p610
tp611
Rp612
ag21
(S'3ns'
p613
tp614
Rp615
ag21
(S'7sm'
p616
tp617
Rp618
ag21
(S'j4'
p619
tp620
Rp621
ag21
(S'1s1'
p622
tp623
Rp624
aI9
I01
tp625
Rp626
ag62
(g72
(lp627
g21
(S'17a'
p628
tp629
Rp630
ag21
(S'3ns'
p631
tp632
Rp633
ag21
(S'7sm'
p634
tp635
Rp636
ag21
(S'j4'
p637
tp638
Rp639
ag21
(S'17a'
p640
tp641
Rp642
ag21
(S'3ns'
p643
tp644
Rp645
ag21
(S'7sm'
p646
tp647
Rp648
ag21
(S'j4'
p649
tp650
Rp651
ag21
(S'2gq'
p652
tp653
Rp654
aI9
I01
tp655
Rp656
ag62
(g72
(lp657
g21
(S'17a'
p658
tp659
Rp660
ag21
(S'3ns'
p661
tp662
Rp663
ag21
(S'7sm'
p664
tp665
Rp666
ag21
(S'j4'
p667
tp668
Rp669
ag21
(S'17a'
p670
tp671
Rp672
ag21
(S'3ns'
p673
tp674
Rp675
ag21
(S'7sm'
p676
tp677
Rp678
ag21
(S'j4'
p679
tp680
Rp681
ag21
(S'3un'
p682
tp683
Rp684
aI9
I01
tp685
Rp686
ag62
(g72
(lp687
g21
(S'17a'
p688
tp689
Rp690
ag21
(S'3ns'
p691
tp692
Rp693
ag21
(S'7sm'
p694
tp695
Rp696
ag21
(S'j4'
p697
tp698
Rp699
ag21
(S'17a'
p700
tp701
Rp702
ag21
(S'3ns'
p703
tp704
Rp705
ag21
(S'7sm'
p706
tp707
Rp708
ag21
(S'j4'
p709
tp710
Rp711
ag21
(S'12e'
p712
tp713
Rp714
aI9
I01
tp715
Rp716
ag62
(g72
(lp717
g21
(S'17a'
p718
tp719
Rp720
ag21
(S'3ns'
p721
tp722
Rp723
ag21
(S'7sm'
p724
tp725
Rp726
ag21
(S'j4'
p727
tp728
Rp729
ag21
(S'17a'
p730
tp731
Rp732
ag21
(S'3ns'
p733
tp734
Rp735
ag21
(S'7sm'
p736
tp737
Rp738
ag21
(S'j4'
p739
tp740
Rp741
ag21
(S'145'
p742
tp743
Rp744
aI9
I01
tp745
Rp746
ag62
(g72
(lp747
g21
(S'17a'
p748
tp749
Rp750
ag21
(S'3ns'
p751
tp752
Rp753
ag21
(S'7sm'
p754
tp755
Rp756
ag21
(S'j4'
p757
tp758
Rp759
ag21
(S'17a'
p760
tp761
Rp762
ag21
(S'3ns'
p763
tp764
Rp765
ag21
(S'7sm'
p766
tp767
Rp768
ag21
(S'j4'
p769
tp770
Rp771
ag21
(S'3ud'
p772
tp773
Rp774
aI9
I01
tp775
Rp776
ag62
(g72
(lp777
g21
(S'17a'
p778
tp779
Rp780
ag21
(S'3ns'
p781
tp782
Rp783
ag21
(S'7sm'
p784
tp785
Rp786
ag21
(S'j4'
p787
tp788
Rp789
ag21
(S'17a'
p790
tp791
Rp792
ag21
(S'3ns'
p793
tp794
Rp795
ag21
(S'7sm'
p796
tp797
Rp798
ag21
(S'j4'
p799
tp800
Rp801
ag21
(S'2o5'
p802
tp803
Rp804
aI9
I01
tp805
Rp806
ag62
(g72
(lp807
g21
(S'17a'
p808
tp809
Rp810
ag21
(S'3ns'
p811
tp812
Rp813
ag21
(S'7sm'
p814
tp815
Rp816
ag21
(S'j4'
p817
tp818
Rp819
ag21
(S'17a'
p820
tp821
Rp822
ag21
(S'3ns'
p823
tp824
Rp825
ag21
(S'7sm'
p826
tp827
Rp828
ag21
(S'j4'
p829
tp830
Rp831
ag21
(S'4rt'
p832
tp833
Rp834
aI9
I01
tp835
Rp836
ag62
(g72
(lp837
g21
(S'17a'
p838
tp839
Rp840
ag21
(S'3ns'
p841
tp842
Rp843
ag21
(S'7sm'
p844
tp845
Rp846
ag21
(S'j4'
p847
tp848
Rp849
ag21
(S'17a'
p850
tp851
Rp852
ag21
(S'3ns'
p853
tp854
Rp855
ag21
(S'7sm'
p856
tp857
Rp858
ag21
(S'j4'
p859
tp860
Rp861
ag21
(S'17a'
p862
tp863
Rp864
aI9
I01
tp865
Rp866
ag62
(g72
(lp867
g21
(S'17a'
p868
tp869
Rp870
ag21
(S'3ns'
p871
tp872
Rp873
ag21
(S'7sm'
p874
tp875
Rp876
ag21
(S'j4'
p877
tp878
Rp879
ag21
(S'17a'
p880
tp881
Rp882
ag21
(S'3ns'
p883
tp884
Rp885
ag21
(S'7sm'
p886
tp887
Rp888
ag21
(S'j4'
p889
tp890
Rp891
ag21
(S'27k'
p892
tp893
Rp894
aI9
I01
tp895
Rp896
ag62
(g72
(lp897
g21
(S'17a'
p898
tp899
Rp900
ag21
(S'3ns'
p901
tp902
Rp903
ag21
(S'7sm'
p904
tp905
Rp906
ag21
(S'j4'
p907
tp908
Rp909
ag21
(S'17a'
p910
tp911
Rp912
ag21
(S'3ns'
p913
tp914
Rp915
ag21
(S'7sm'
p916
tp917
Rp918
ag21
(S'j4'
p919
tp920
Rp921
ag21
(S'23e'
p922
tp923
Rp924
aI9
I01
tp925
Rp926
ag62
(g72
(lp927
g21
(S'17a'
p928
tp929
Rp930
ag21
(S'3ns'
p931
tp932
Rp933
ag21
(S'7sm'
p934
tp935
Rp936
ag21
(S'j4'
p937
tp938
Rp939
ag21
(S'17a'
p940
tp941
Rp942
ag21
(S'3ns'
p943
tp944
Rp945
ag21
(S'7sm'
p946
tp947
Rp948
ag21
(S'j4'
p949
tp950
Rp951
ag21
(S'20a'
p952
tp953
Rp954
aI9
I01
tp955
Rp956
ag62
(g72
(lp957
g21
(S'17a'
p958
tp959
Rp960
ag21
(S'3ns'
p961
tp962
Rp963
ag21
(S'7sm'
p964
tp965
Rp966
ag21
(S'j4'
p967
tp968
Rp969
ag21
(S'17a'
p970
tp971
Rp972
ag21
(S'3ns'
p973
tp974
Rp975
ag21
(S'7sm'
p976
tp977
Rp978
ag21
(S'j4'
p979
tp980
Rp981
ag21
(S'4hd'
p982
tp983
Rp984
aI9
I01
tp985
Rp986
ag62
(g72
(lp987
g21
(S'17a'
p988
tp989
Rp990
ag21
(S'3ns'
p991
tp992
Rp993
ag21
(S'7sm'
p994
tp995
Rp996
ag21
(S'j4'
p997
tp998
Rp999
ag21
(S'17a'
p1000
tp1001
Rp1002
ag21
(S'3ns'
p1003
tp1004
Rp1005
ag21
(S'7sm'
p1006
tp1007
Rp1008
ag21
(S'j4'
p1009
tp1010
Rp1011
ag21
(S'38o'
p1012
tp1013
Rp1014
aI9
I01
tp1015
Rp1016
ag62
(g72
(lp1017
g21
(S'17a'
p1018
tp1019
Rp1020
ag21
(S'3ns'
p1021
tp1022
Rp1023
ag21
(S'7sm'
p1024
tp1025
Rp1026
ag21
(S'j4'
p1027
tp1028
Rp1029
ag21
(S'17a'
p1030
tp1031
Rp1032
ag21
(S'3ns'
p1033
tp1034
Rp1035
ag21
(S'7sm'
p1036
tp1037
Rp1038
ag21
(S'j4'
p1039
tp1040
Rp1041
ag21
(S'4ad'
p1042
tp1043
Rp1044
aI9
I01
tp1045
Rp1046
ag62
(g72
(lp1047
g21
(S'17a'
p1048
tp1049
Rp1050
ag21
(S'3ns'
p1051
tp1052
Rp1053
ag21
(S'7sm'
p1054
tp1055
Rp1056
ag21
(S'j4'
p1057
tp1058
Rp1059
ag21
(S'17a'
p1060
tp1061
Rp1062
ag21
(S'3ns'
p1063
tp1064
Rp1065
ag21
(S'7sm'
p1066
tp1067
Rp1068
ag21
(S'j4'
p1069
tp1070
Rp1071
ag21
(S'200'
p1072
tp1073
Rp1074
aI9
I01
tp1075
Rp1076
ag62
(g72
(lp1077
g21
(S'17a'
p1078
tp1079
Rp1080
ag21
(S'3ns'
p1081
tp1082
Rp1083
ag21
(S'7sm'
p1084
tp1085
Rp1086
ag21
(S'j4'
p1087
tp1088
Rp1089
ag21
(S'17a'
p1090
tp1091
Rp1092
ag21
(S'3ns'
p1093
tp1094
Rp1095
ag21
(S'7sm'
p1096
tp1097
Rp1098
ag21
(S'j4'
p1099
tp1100
Rp1101
ag21
(S'4f0'
p1102
tp1103
Rp1104
aI9
I01
tp1105
Rp1106
ag62
(g72
(lp1107
g21
(S'17a'
p1108
tp1109
Rp1110
ag21
(S'3ns'
p1111
tp1112
Rp1113
ag21
(S'7sm'
p1114
tp1115
Rp1116
ag21
(S'j4'
p1117
tp1118
Rp1119
ag21
(S'17a'
p1120
tp1121
Rp1122
ag21
(S'3ns'
p1123
tp1124
Rp1125
ag21
(S'7sm'
p1126
tp1127
Rp1128
ag21
(S'j4'
p1129
tp1130
Rp1131
ag21
(S'3rb'
p1132
tp1133
Rp1134
aI9
I01
tp1135
Rp1136
ag62
(g72
(lp1137
g21
(S'17a'
p1138
tp1139
Rp1140
ag21
(S'3ns'
p1141
tp1142
Rp1143
ag21
(S'7sm'
p1144
tp1145
Rp1146
ag21
(S'j4'
p1147
tp1148
Rp1149
ag21
(S'17a'
p1150
tp1151
Rp1152
ag21
(S'3ns'
p1153
tp1154
Rp1155
ag21
(S'7sm'
p1156
tp1157
Rp1158
ag21
(S'j4'
p1159
tp1160
Rp1161
ag21
(S'14v'
p1162
tp1163
Rp1164
aI9
I01
tp1165
Rp1166
ag62
(g72
(lp1167
g21
(S'17a'
p1168
tp1169
Rp1170
ag21
(S'3ns'
p1171
tp1172
Rp1173
ag21
(S'7sm'
p1174
tp1175
Rp1176
ag21
(S'j4'
p1177
tp1178
Rp1179
ag21
(S'17a'
p1180
tp1181
Rp1182
ag21
(S'3ns'
p1183
tp1184
Rp1185
ag21
(S'7sm'
p1186
tp1187
Rp1188
ag21
(S'j4'
p1189
tp1190
Rp1191
ag21
(S'47g'
p1192
tp1193
Rp1194
aI9
I01
tp1195
Rp1196
a(lp1197
g62
(g72
(lp1198
g21
(g74
tp1199
Rp1200
ag21
(g74
tp1201
Rp1202
ag21
(g74
tp1203
Rp1204
ag21
(g74
tp1205
Rp1206
ag21
(S'7'
p1207
tp1208
Rp1209
ag21
(S'2'
p1210
tp1211
Rp1212
ag21
(S'3'
p1213
tp1214
Rp1215
ag21
(S'n'
p1216
tp1217
Rp1218
ag21
(g74
tp1219
Rp1220
aI9
I01
tp1221
Rp1222
ag62
(g72
(lp1223
g21
(g74
tp1224
Rp1225
ag21
(g74
tp1226
Rp1227
ag21
(g74
tp1228
Rp1229
ag21
(g74
tp1230
Rp1231
ag21
(g1207
tp1232
Rp1233
ag21
(g1210
tp1234
Rp1235
ag21
(g1213
tp1236
Rp1237
ag21
(g1216
tp1238
Rp1239
ag21
(g74
tp1240
Rp1241
aI9
I01
tp1242
Rp1243
ag62
(g72
(lp1244
g21
(g74
tp1245
Rp1246
ag21
(g74
tp1247
Rp1248
ag21
(g74
tp1249
Rp1250
ag21
(g74
tp1251
Rp1252
ag21
(g1207
tp1253
Rp1254
ag21
(g1210
tp1255
Rp1256
ag21
(g1213
tp1257
Rp1258
ag21
(g1216
tp1259
Rp1260
ag21
(g74
tp1261
Rp1262
aI9
I01
tp1263
Rp1264
ag62
(g72
(lp1265
g21
(g74
tp1266
Rp1267
ag21
(g74
tp1268
Rp1269
ag21
(g74
tp1270
Rp1271
ag21
(g74
tp1272
Rp1273
ag21
(g1207
tp1274
Rp1275
ag21
(g1210
tp1276
Rp1277
ag21
(g1213
tp1278
Rp1279
ag21
(g1216
tp1280
Rp1281
ag21
(g74
tp1282
Rp1283
aI9
I01
tp1284
Rp1285
ag62
(g72
(lp1286
g21
(g74
tp1287
Rp1288
ag21
(g74
tp1289
Rp1290
ag21
(g74
tp1291
Rp1292
ag21
(g74
tp1293
Rp1294
ag21
(g1207
tp1295
Rp1296
ag21
(g1210
tp1297
Rp1298
ag21
(g1213
tp1299
Rp1300
ag21
(g1216
tp1301
Rp1302
ag21
(g74
tp1303
Rp1304
aI9
I01
tp1305
Rp1306
ag62
(g72
(lp1307
g21
(g74
tp1308
Rp1309
ag21
(g74
tp1310
Rp1311
ag21
(g74
tp1312
Rp1313
ag21
(g74
tp1314
Rp1315
ag21
(g1207
tp1316
Rp1317
ag21
(g1210
tp1318
Rp1319
ag21
(g1213
tp1320
Rp1321
ag21
(g1216
tp1322
Rp1323
ag21
(g74
tp1324
Rp1325
aI9
I01
tp1326
Rp1327
ag62
(g72
(lp1328
g21
(g74
tp1329
Rp1330
ag21
(g74
tp1331
Rp1332
ag21
(g74
tp1333
Rp1334
ag21
(g74
tp1335
Rp1336
ag21
(g1207
tp1337
Rp1338
ag21
(g1210
tp1339
Rp1340
ag21
(g1213
tp1341
Rp1342
ag21
(g1216
tp1343
Rp1344
ag21
(g74
tp1345
Rp1346
aI9
I01
tp1347
Rp1348
ag62
(g72
(lp1349
g21
(g74
tp1350
Rp1351
ag21
(g74
tp1352
Rp1353
ag21
(g74
tp1354
Rp1355
ag21
(g74
tp1356
Rp1357
ag21
(g1207
tp1358
Rp1359
ag21
(g1210
tp1360
Rp1361
ag21
(g1213
tp1362
Rp1363
ag21
(g1216
tp1364
Rp1365
ag21
(g74
tp1366
Rp1367
aI9
I01
tp1368
Rp1369
ag62
(g72
(lp1370
g21
(g74
tp1371
Rp1372
ag21
(g74
tp1373
Rp1374
ag21
(g74
tp1375
Rp1376
ag21
(g74
tp1377
Rp1378
ag21
(g1207
tp1379
Rp1380
ag21
(g1210
tp1381
Rp1382
ag21
(g1213
tp1383
Rp1384
ag21
(g1216
tp1385
Rp1386
ag21
(g74
tp1387
Rp1388
aI9
I01
tp1389
Rp1390
ag62
(g72
(lp1391
g21
(g74
tp1392
Rp1393
ag21
(g74
tp1394
Rp1395
ag21
(g74
tp1396
Rp1397
ag21
(g74
tp1398
Rp1399
ag21
(g1207
tp1400
Rp1401
ag21
(g1210
tp1402
Rp1403
ag21
(g1213
tp1404
Rp1405
ag21
(g1216
tp1406
Rp1407
ag21
(g74
tp1408
Rp1409
aI9
I01
tp1410
Rp1411
ag62
(g72
(lp1412
g21
(g74
tp1413
Rp1414
ag21
(g74
tp1415
Rp1416
ag21
(g74
tp1417
Rp1418
ag21
(g74
tp1419
Rp1420
ag21
(g1207
tp1421
Rp1422
ag21
(g1210
tp1423
Rp1424
ag21
(g1213
tp1425
Rp1426
ag21
(g1216
tp1427
Rp1428
ag21
(g74
tp1429
Rp1430
aI9
I01
tp1431
Rp1432
ag62
(g72
(lp1433
g21
(g74
tp1434
Rp1435
ag21
(g74
tp1436
Rp1437
ag21
(g74
tp1438
Rp1439
ag21
(g74
tp1440
Rp1441
ag21
(g1207
tp1442
Rp1443
ag21
(g1210
tp1444
Rp1445
ag21
(g1213
tp1446
Rp1447
ag21
(g1216
tp1448
Rp1449
ag21
(g74
tp1450
Rp1451
aI9
I01
tp1452
Rp1453
ag62
(g72
(lp1454
g21
(g74
tp1455
Rp1456
ag21
(g74
tp1457
Rp1458
ag21
(g74
tp1459
Rp1460
ag21
(g74
tp1461
Rp1462
ag21
(g1207
tp1463
Rp1464
ag21
(g1210
tp1465
Rp1466
ag21
(g1213
tp1467
Rp1468
ag21
(g1216
tp1469
Rp1470
ag21
(g74
tp1471
Rp1472
aI9
I01
tp1473
Rp1474
ag62
(g72
(lp1475
g21
(g74
tp1476
Rp1477
ag21
(g74
tp1478
Rp1479
ag21
(g74
tp1480
Rp1481
ag21
(g74
tp1482
Rp1483
ag21
(g1207
tp1484
Rp1485
ag21
(g1210
tp1486
Rp1487
ag21
(g1213
tp1488
Rp1489
ag21
(g1216
tp1490
Rp1491
ag21
(g74
tp1492
Rp1493
aI9
I01
tp1494
Rp1495
ag62
(g72
(lp1496
g21
(g74
tp1497
Rp1498
ag21
(g74
tp1499
Rp1500
ag21
(g74
tp1501
Rp1502
ag21
(g74
tp1503
Rp1504
ag21
(g1207
tp1505
Rp1506
ag21
(g1210
tp1507
Rp1508
ag21
(g1213
tp1509
Rp1510
ag21
(g1216
tp1511
Rp1512
ag21
(g74
tp1513
Rp1514
aI9
I01
tp1515
Rp1516
ag62
(g72
(lp1517
g21
(g74
tp1518
Rp1519
ag21
(g74
tp1520
Rp1521
ag21
(g74
tp1522
Rp1523
ag21
(g74
tp1524
Rp1525
ag21
(g1207
tp1526
Rp1527
ag21
(g1210
tp1528
Rp1529
ag21
(g1213
tp1530
Rp1531
ag21
(g1216
tp1532
Rp1533
ag21
(g74
tp1534
Rp1535
aI9
I01
tp1536
Rp1537
ag62
(g72
(lp1538
g21
(g74
tp1539
Rp1540
ag21
(g74
tp1541
Rp1542
ag21
(g74
tp1543
Rp1544
ag21
(g74
tp1545
Rp1546
ag21
(g1207
tp1547
Rp1548
ag21
(g1210
tp1549
Rp1550
ag21
(g1213
tp1551
Rp1552
ag21
(g1216
tp1553
Rp1554
ag21
(g74
tp1555
Rp1556
aI9
I01
tp1557
Rp1558
ag62
(g72
(lp1559
g21
(g74
tp1560
Rp1561
ag21
(g74
tp1562
Rp1563
ag21
(g74
tp1564
Rp1565
ag21
(g74
tp1566
Rp1567
ag21
(g1207
tp1568
Rp1569
ag21
(g1210
tp1570
Rp1571
ag21
(g1213
tp1572
Rp1573
ag21
(g1216
tp1574
Rp1575
ag21
(g74
tp1576
Rp1577
aI9
I01
tp1578
Rp1579
ag62
(g72
(lp1580
g21
(g74
tp1581
Rp1582
ag21
(g74
tp1583
Rp1584
ag21
(g74
tp1585
Rp1586
ag21
(g74
tp1587
Rp1588
ag21
(g1207
tp1589
Rp1590
ag21
(g1210
tp1591
Rp1592
ag21
(g1213
tp1593
Rp1594
ag21
(g1216
tp1595
Rp1596
ag21
(g74
tp1597
Rp1598
aI9
I01
tp1599
Rp1600
ag62
(g72
(lp1601
g21
(g74
tp1602
Rp1603
ag21
(g74
tp1604
Rp1605
ag21
(g74
tp1606
Rp1607
ag21
(g74
tp1608
Rp1609
ag21
(g1207
tp1610
Rp1611
ag21
(g1210
tp1612
Rp1613
ag21
(g1213
tp1614
Rp1615
ag21
(g1216
tp1616
Rp1617
ag21
(g74
tp1618
Rp1619
aI9
I01
tp1620
Rp1621
ag62
(g72
(lp1622
g21
(g74
tp1623
Rp1624
ag21
(g74
tp1625
Rp1626
ag21
(g74
tp1627
Rp1628
ag21
(g74
tp1629
Rp1630
ag21
(g1207
tp1631
Rp1632
ag21
(g1210
tp1633
Rp1634
ag21
(g1213
tp1635
Rp1636
ag21
(g1216
tp1637
Rp1638
ag21
(g74
tp1639
Rp1640
aI9
I01
tp1641
Rp1642
ag62
(g72
(lp1643
g21
(g74
tp1644
Rp1645
ag21
(g74
tp1646
Rp1647
ag21
(g74
tp1648
Rp1649
ag21
(g74
tp1650
Rp1651
ag21
(g1207
tp1652
Rp1653
ag21
(g1210
tp1654
Rp1655
ag21
(g1213
tp1656
Rp1657
ag21
(g1216
tp1658
Rp1659
ag21
(g74
tp1660
Rp1661
aI9
I01
tp1662
Rp1663
a(lp1664
g62
(g72
(lp1665
g21
(g74
tp1666
Rp1667
ag21
(g74
tp1668
Rp1669
ag21
(g74
tp1670
Rp1671
ag21
(g74
tp1672
Rp1673
ag21
(S'17a'
p1674
tp1675
Rp1676
ag21
(S'3ns'
p1677
tp1678
Rp1679
ag21
(S'7sm'
p1680
tp1681
Rp1682
ag21
(S'j4'
p1683
tp1684
Rp1685
ag21
(S'1mr'
p1686
tp1687
Rp1688
aI9
I01
tp1689
Rp1690
ag62
(g72
(lp1691
g21
(g74
tp1692
Rp1693
ag21
(g74
tp1694
Rp1695
ag21
(g74
tp1696
Rp1697
ag21
(g74
tp1698
Rp1699
ag21
(g74
tp1700
Rp1701
ag21
(g74
tp1702
Rp1703
ag21
(g74
tp1704
Rp1705
ag21
(g74
tp1706
Rp1707
ag21
(S'3ln'
p1708
tp1709
Rp1710
aI9
I01
tp1711
Rp1712
ag62
(g72
(lp1713
g21
(g74
tp1714
Rp1715
ag21
(g74
tp1716
Rp1717
ag21
(g74
tp1718
Rp1719
ag21
(g74
tp1720
Rp1721
ag21
(g74
tp1722
Rp1723
ag21
(g74
tp1724
Rp1725
ag21
(g74
tp1726
Rp1727
ag21
(g74
tp1728
Rp1729
ag21
(S'1s1'
p1730
tp1731
Rp1732
aI9
I01
tp1733
Rp1734
ag62
(g72
(lp1735
g21
(g74
tp1736
Rp1737
ag21
(g74
tp1738
Rp1739
ag21
(g74
tp1740
Rp1741
ag21
(g74
tp1742
Rp1743
ag21
(g74
tp1744
Rp1745
ag21
(g74
tp1746
Rp1747
ag21
(g74
tp1748
Rp1749
ag21
(g74
tp1750
Rp1751
ag21
(S'2gq'
p1752
tp1753
Rp1754
aI9
I01
tp1755
Rp1756
ag62
(g72
(lp1757
g21
(g74
tp1758
Rp1759
ag21
(g74
tp1760
Rp1761
ag21
(g74
tp1762
Rp1763
ag21
(g74
tp1764
Rp1765
ag21
(g74
tp1766
Rp1767
ag21
(g74
tp1768
Rp1769
ag21
(g74
tp1770
Rp1771
ag21
(g74
tp1772
Rp1773
ag21
(S'3un'
p1774
tp1775
Rp1776
aI9
I01
tp1777
Rp1778
ag62
(g72
(lp1779
g21
(g74
tp1780
Rp1781
ag21
(g74
tp1782
Rp1783
ag21
(g74
tp1784
Rp1785
ag21
(g74
tp1786
Rp1787
ag21
(g74
tp1788
Rp1789
ag21
(g74
tp1790
Rp1791
ag21
(g74
tp1792
Rp1793
ag21
(g74
tp1794
Rp1795
ag21
(S'12e'
p1796
tp1797
Rp1798
aI9
I01
tp1799
Rp1800
ag62
(g72
(lp1801
g21
(g74
tp1802
Rp1803
ag21
(g74
tp1804
Rp1805
ag21
(g74
tp1806
Rp1807
ag21
(g74
tp1808
Rp1809
ag21
(g74
tp1810
Rp1811
ag21
(g74
tp1812
Rp1813
ag21
(g74
tp1814
Rp1815
ag21
(g74
tp1816
Rp1817
ag21
(S'145'
p1818
tp1819
Rp1820
aI9
I01
tp1821
Rp1822
ag62
(g72
(lp1823
g21
(g74
tp1824
Rp1825
ag21
(g74
tp1826
Rp1827
ag21
(g74
tp1828
Rp1829
ag21
(g74
tp1830
Rp1831
ag21
(g74
tp1832
Rp1833
ag21
(g74
tp1834
Rp1835
ag21
(g74
tp1836
Rp1837
ag21
(g74
tp1838
Rp1839
ag21
(S'3ud'
p1840
tp1841
Rp1842
aI9
I01
tp1843
Rp1844
ag62
(g72
(lp1845
g21
(g74
tp1846
Rp1847
ag21
(g74
tp1848
Rp1849
ag21
(g74
tp1850
Rp1851
ag21
(g74
tp1852
Rp1853
ag21
(g74
tp1854
Rp1855
ag21
(g74
tp1856
Rp1857
ag21
(g74
tp1858
Rp1859
ag21
(g74
tp1860
Rp1861
ag21
(S'2o5'
p1862
tp1863
Rp1864
aI9
I01
tp1865
Rp1866
ag62
(g72
(lp1867
g21
(g74
tp1868
Rp1869
ag21
(g74
tp1870
Rp1871
ag21
(g74
tp1872
Rp1873
ag21
(g74
tp1874
Rp1875
ag21
(g74
tp1876
Rp1877
ag21
(g74
tp1878
Rp1879
ag21
(g74
tp1880
Rp1881
ag21
(g74
tp1882
Rp1883
ag21
(S'4rt'
p1884
tp1885
Rp1886
aI9
I01
tp1887
Rp1888
ag62
(g72
(lp1889
g21
(g74
tp1890
Rp1891
ag21
(g74
tp1892
Rp1893
ag21
(g74
tp1894
Rp1895
ag21
(g74
tp1896
Rp1897
ag21
(g74
tp1898
Rp1899
ag21
(g74
tp1900
Rp1901
ag21
(g74
tp1902
Rp1903
ag21
(g74
tp1904
Rp1905
ag21
(S'17a'
p1906
tp1907
Rp1908
aI9
I01
tp1909
Rp1910
ag62
(g72
(lp1911
g21
(g74
tp1912
Rp1913
ag21
(g74
tp1914
Rp1915
ag21
(g74
tp1916
Rp1917
ag21
(g74
tp1918
Rp1919
ag21
(g74
tp1920
Rp1921
ag21
(g74
tp1922
Rp1923
ag21
(g74
tp1924
Rp1925
ag21
(g74
tp1926
Rp1927
ag21
(S'27k'
p1928
tp1929
Rp1930
aI9
I01
tp1931
Rp1932
ag62
(g72
(lp1933
g21
(g74
tp1934
Rp1935
ag21
(g74
tp1936
Rp1937
ag21
(g74
tp1938
Rp1939
ag21
(g74
tp1940
Rp1941
ag21
(g74
tp1942
Rp1943
ag21
(g74
tp1944
Rp1945
ag21
(g74
tp1946
Rp1947
ag21
(g74
tp1948
Rp1949
ag21
(S'23e'
p1950
tp1951
Rp1952
aI9
I01
tp1953
Rp1954
ag62
(g72
(lp1955
g21
(g74
tp1956
Rp1957
ag21
(g74
tp1958
Rp1959
ag21
(g74
tp1960
Rp1961
ag21
(g74
tp1962
Rp1963
ag21
(g74
tp1964
Rp1965
ag21
(g74
tp1966
Rp1967
ag21
(g74
tp1968
Rp1969
ag21
(g74
tp1970
Rp1971
ag21
(S'20a'
p1972
tp1973
Rp1974
aI9
I01
tp1975
Rp1976
ag62
(g72
(lp1977
g21
(g74
tp1978
Rp1979
ag21
(g74
tp1980
Rp1981
ag21
(g74
tp1982
Rp1983
ag21
(g74
tp1984
Rp1985
ag21
(g74
tp1986
Rp1987
ag21
(g74
tp1988
Rp1989
ag21
(g74
tp1990
Rp1991
ag21
(g74
tp1992
Rp1993
ag21
(S'4hd'
p1994
tp1995
Rp1996
aI9
I01
tp1997
Rp1998
ag62
(g72
(lp1999
g21
(g74
tp2000
Rp2001
ag21
(g74
tp2002
Rp2003
ag21
(g74
tp2004
Rp2005
ag21
(g74
tp2006
Rp2007
ag21
(g74
tp2008
Rp2009
ag21
(g74
tp2010
Rp2011
ag21
(g74
tp2012
Rp2013
ag21
(g74
tp2014
Rp2015
ag21
(S'38o'
p2016
tp2017
Rp2018
aI9
I01
tp2019
Rp2020
ag62
(g72
(lp2021
g21
(g74
tp2022
Rp2023
ag21
(g74
tp2024
Rp2025
ag21
(g74
tp2026
Rp2027
ag21
(g74
tp2028
Rp2029
ag21
(g74
tp2030
Rp2031
ag21
(g74
tp2032
Rp2033
ag21
(g74
tp2034
Rp2035
ag21
(g74
tp2036
Rp2037
ag21
(S'4ad'
p2038
tp2039
Rp2040
aI9
I01
tp2041
Rp2042
ag62
(g72
(lp2043
g21
(g74
tp2044
Rp2045
ag21
(g74
tp2046
Rp2047
ag21
(g74
tp2048
Rp2049
ag21
(g74
tp2050
Rp2051
ag21
(g74
tp2052
Rp2053
ag21
(g74
tp2054
Rp2055
ag21
(g74
tp2056
Rp2057
ag21
(g74
tp2058
Rp2059
ag21
(S'200'
p2060
tp2061
Rp2062
aI9
I01
tp2063
Rp2064
ag62
(g72
(lp2065
g21
(g74
tp2066
Rp2067
ag21
(g74
tp2068
Rp2069
ag21
(g74
tp2070
Rp2071
ag21
(g74
tp2072
Rp2073
ag21
(g74
tp2074
Rp2075
ag21
(g74
tp2076
Rp2077
ag21
(g74
tp2078
Rp2079
ag21
(g74
tp2080
Rp2081
ag21
(S'4f0'
p2082
tp2083
Rp2084
aI9
I01
tp2085
Rp2086
ag62
(g72
(lp2087
g21
(g74
tp2088
Rp2089
ag21
(g74
tp2090
Rp2091
ag21
(g74
tp2092
Rp2093
ag21
(g74
tp2094
Rp2095
ag21
(g74
tp2096
Rp2097
ag21
(g74
tp2098
Rp2099
ag21
(g74
tp2100
Rp2101
ag21
(g74
tp2102
Rp2103
ag21
(S'3rb'
p2104
tp2105
Rp2106
aI9
I01
tp2107
Rp2108
ag62
(g72
(lp2109
g21
(g74
tp2110
Rp2111
ag21
(g74
tp2112
Rp2113
ag21
(g74
tp2114
Rp2115
ag21
(g74
tp2116
Rp2117
ag21
(g74
tp2118
Rp2119
ag21
(g74
tp2120
Rp2121
ag21
(g74
tp2122
Rp2123
ag21
(g74
tp2124
Rp2125
ag21
(S'14v'
p2126
tp2127
Rp2128
aI9
I01
tp2129
Rp2130
ag62
(g72
(lp2131
g21
(g74
tp2132
Rp2133
ag21
(g74
tp2134
Rp2135
ag21
(g74
tp2136
Rp2137
ag21
(g74
tp2138
Rp2139
ag21
(g74
tp2140
Rp2141
ag21
(g74
tp2142
Rp2143
ag21
(g74
tp2144
Rp2145
ag21
(g74
tp2146
Rp2147
ag21
(S'47g'
p2148
tp2149
Rp2150
aI9
I01
tp2151
Rp2152
atp2153
.