(csage.matrix.matrix0
unpickle
p0
(csage.matrix.matrix_integer_dense
Matrix_integer_dense
p1
csage.structure.unique_representation
unreduce
p2
(csage.matrix.matrix_space
MatrixSpace
p3
(csage.rings.integer_ring
IntegerRing
p4
(tRp5
I1
I9
I00
S'flint'
p6
tp7
(dp8
tp9
Rp10
I00
NS'2 3 7 n 0 0 0 0 1'
p11
I0
tp12
Rp13
g0
(g1
g2
(g3
(g5
I4
I9
I00
g6
tp14
(dp15
tp16
Rp17
I00
NS'1 0 0 0 1 0 0 0 0 0 1 0 0 0 1 0 0 0 0 0 1 0 0 0 1 0 0 0 0 0 1 0 0 0 1 0'
p18
I0
tp19
Rp20
csage.rings.integer
make_integer
p21
(S'f'
p22
tp23
Rp24
(lp25
(g21
(S'p8'
p26
tp27
Rp28
g21
(S'2da'
p29
tp30
Rp31
g21
(S'536'
p32
tp33
Rp34
g21
(S'cu'
p35
tp36
Rp37
tp38
a(I1030
tp39
a(I1141
tp40
a(I1241
tp41
a(I1792
tp42
a(I1976
tp43
a(I2304
tp44
a(I2330
tp45
a(I2507
tp46
a(I3082
tp47
a(I3547
tp48
a(I3644
tp49
a(I3733
tp50
a(I4163
tp51
a(I4810
tp52
a(I4820
tp53
a(lp54
csage.modules.vector_integer_dense
unpickle_v1
p55
(csage.structure.factory
generic_factory_unpickle
p56
(csage.structure.factory
lookup_global
p57
(S'FreeModule'
p58
tp59
Rp60
(I7
I6
tp61
(g5
I9
I00
Ntp62
(dp63
tp64
Rp65
(lp66
g21
(S'0'
p67
tp68
Rp69
ag21
(g67
tp70
Rp71
ag21
(g67
tp72
Rp73
ag21
(g67
tp74
Rp75
ag21
(g67
tp76
Rp77
ag21
(g67
tp78
Rp79
ag21
(g67
tp80
Rp81
ag21
(g67
tp82
Rp83
ag21
(g67
tp84
Rp85
aI9
I01
tp86
Rp87
ag55
(g65
(lp88
g21
(g67
tp89
Rp90
ag21
(g67
tp91
Rp92
ag21
(g67
tp93
Rp94
ag21
(g67
tp95
Rp96
ag21
(g67
tp97
Rp98
ag21
(g67
tp99
Rp100
ag21
(g67
tp101
Rp102
ag21
(g67
tp103
Rp104
ag21
(g67
tp105
Rp106
aI9
I01
tp107
Rp108
ag55
(g65
(lp109
g21
(g67
tp110
Rp111
ag21
(g67
tp112
Rp113
ag21
(g67
tp114
Rp115
ag21
(g67
tp116
Rp117
ag21
(g67
tp118
Rp119
ag21
(g67
tp120
Rp121
ag21
(g67
tp122
Rp123
ag21
(g67
tp124
Rp125
ag21
(g67
tp126
Rp127
aI9
I01
tp128
Rp129
ag55
(g65
(lp130
g21
(g67
tp131
Rp132
ag21
(g67
tp133
Rp134
ag21
(g67
tp135
Rp136
ag21
(g67
tp137
Rp138
ag21
(g67
tp139
Rp140
ag21
(g67
tp141
Rp142
ag21
(g67
tp143
Rp144
ag21
(g67
tp145
Rp146
ag21
(g67
tp147
Rp148
aI9
I01
tp149
Rp150
ag55
(g65
(lp151
g21
(g67
tp152
Rp153
ag21
(g67
tp154
Rp155
ag21
(g67
tp156
Rp157
ag21
(g67
tp158
Rp159
ag21
(g67
tp160
Rp161
ag21
(g67
tp162
Rp163
ag21
(g67
tp164
Rp165
ag21
(g67
tp166
Rp167
ag21
(g67
tp168
Rp169
aI9
I01
tp170
Rp171
ag55
(g65
(lp172
g21
(g67
tp173
Rp174
ag21
(g67
tp175
Rp176
ag21
(g67
tp177
Rp178
ag21
(g67
tp179
Rp180
ag21
(g67
tp181
Rp182
ag21
(g67
tp183
Rp184
ag21
(g67
tp185
Rp186
ag21
(g67
tp187
Rp188
ag21
(g67
tp189
Rp190
aI9
I01
tp191
Rp192
ag55
(g65
(lp193
g21
(g67
tp194
Rp195
ag21
(g67
tp196
Rp197
ag21
(g67
tp198
Rp199
ag21
(g67
tp200
Rp201
ag21
(g67
tp202
Rp203
ag21
(g67
tp204
Rp205
ag21
(g67
tp206
Rp207
ag21
(g67
tp208
Rp209
ag21
(g67
tp210
Rp211
aI9
I01
tp212
Rp213
ag55
(g65
(lp214
g21
(g67
tp215
Rp216
ag21
(g67
tp217
Rp218
ag21
(g67
tp219
Rp220
ag21
(g67
tp221
Rp222
ag21
(g67
tp223
Rp224
ag21
(g67
tp225
Rp226
ag21
(g67
tp227
Rp228
ag21
(g67
tp229
Rp230
ag21
(g67
tp231
Rp232
aI9
I01
tp233
Rp234
ag55
(g65
(lp235
g21
(g67
tp236
Rp237
ag21
(g67
tp238
Rp239
ag21
(g67
tp240
Rp241
ag21
(g67
tp242
Rp243
ag21
(g67
tp244
Rp245
ag21
(g67
tp246
Rp247
ag21
(g67
tp248
Rp249
ag21
(g67
tp250
Rp251
ag21
(g67
tp252
Rp253
aI9
I01
tp254
Rp255
ag55
(g65
(lp256
g21
(g67
tp257
Rp258
ag21
(g67
tp259
Rp260
ag21
(g67
tp261
Rp262
ag21
(g67
tp263
Rp264
ag21
(g67
tp265
Rp266
ag21
(g67
tp267
Rp268
ag21
(g67
tp269
Rp270
ag21
(g67
tp271
Rp272
ag21
(g67
tp273
Rp274
aI9
I01
tp275
Rp276
ag55
(g65
(lp277
g21
(g67
tp278
Rp279
ag21
(g67
tp280
Rp281
ag21
(g67
tp282
Rp283
ag21
(g67
tp284
Rp285
ag21
(g67
tp286
Rp287
ag21
(g67
tp288
Rp289
ag21
(g67
tp290
Rp291
ag21
(g67
tp292
Rp293
ag21
(g67
tp294
Rp295
aI9
I01
tp296
Rp297
ag55
(g65
(lp298
g21
(g67
tp299
Rp300
ag21
(g67
tp301
Rp302
ag21
(g67
tp303
Rp304
ag21
(g67
tp305
Rp306
ag21
(g67
tp307
Rp308
ag21
(g67
tp309
Rp310
ag21
(g67
tp311
Rp312
ag21
(g67
tp313
Rp314
ag21
(g67
tp315
Rp316
aI9
I01
tp317
Rp318
ag55
(g65
(lp319
g21
(g67
tp320
Rp321
ag21
(g67
tp322
Rp323
ag21
(g67
tp324
Rp325
ag21
(g67
tp326
Rp327
ag21
(g67
tp328
Rp329
ag21
(g67
tp330
Rp331
ag21
(g67
tp332
Rp333
ag21
(g67
tp334
Rp335
ag21
(g67
tp336
Rp337
aI9
I01
tp338
Rp339
ag55
(g65
(lp340
g21
(g67
tp341
Rp342
ag21
(g67
tp343
Rp344
ag21
(g67
tp345
Rp346
ag21
(g67
tp347
Rp348
ag21
(g67
tp349
Rp350
ag21
(g67
tp351
Rp352
ag21
(g67
tp353
Rp354
ag21
(g67
tp355
Rp356
ag21
(g67
tp357
Rp358
aI9
I01
tp359
Rp360
ag55
(g65
(lp361
g21
(g67
tp362
Rp363
ag21
(g67
tp364
Rp365
ag21
(g67
tp366
Rp367
ag21
(g67
tp368
Rp369
ag21
(g67
tp370
Rp371
ag21
(g67
tp372
Rp373
ag21
(g67
tp374
Rp375
ag21
(g67
tp376
Rp377
ag21
(g67
tp378
Rp379
aI9
I01
tp380
Rp381
a(lp382
g55
(g65
(lp383
g21
(S'p8'
p384
tp385
Rp386
ag21
(S'2da'
p387
tp388
Rp389
ag21
(S'536'
p390
tp391
Rp392
ag21
(S'cu'
p393
tp394
Rp395
ag21
(S'p8'
p396
tp397
Rp398
ag21
(S'2da'
p399
tp400
Rp401
ag21
(S'536'
p402
tp403
Rp404
ag21
(S'cu'
p405
tp406
Rp407
ag21
(S'106'
p408
tp409
Rp410
aI9
I01
tp411
Rp412
ag55
(g65
(lp413
g21
(S'p8'
p414
tp415
Rp416
ag21
(S'2da'
p417
tp418
Rp419
ag21
(S'536'
p420
tp421
Rp422
ag21
(S'cu'
p423
tp424
Rp425
ag21
(S'p8'
p426
tp427
Rp428
ag21
(S'2da'
p429
tp430
Rp431
ag21
(S'536'
p432
tp433
Rp434
ag21
(S'cu'
p435
tp436
Rp437
ag21
(S'13l'
p438
tp439
Rp440
aI9
I01
tp441
Rp442
ag55
(g65
(lp443
g21
(S'p8'
p444
tp445
Rp446
ag21
(S'2da'
p447
tp448
Rp449
ag21
(S'536'
p450
tp451
Rp452
ag21
(S'cu'
p453
tp454
Rp455
ag21
(S'p8'
p456
tp457
Rp458
ag21
(S'2da'
p459
tp460
Rp461
ag21
(S'536'
p462
tp463
Rp464
ag21
(S'cu'
p465
tp466
Rp467
ag21
(S'16p'
p468
tp469
Rp470
aI9
I01
tp471
Rp472
ag55
(g65
(lp473
g21
(S'p8'
p474
tp475
Rp476
ag21
(S'2da'
p477
tp478
Rp479
ag21
(S'536'
p480
tp481
Rp482
ag21
(S'cu'
p483
tp484
Rp485
ag21
(S'p8'
p486
tp487
Rp488
ag21
(S'2da'
p489
tp490
Rp491
ag21
(S'536'
p492
tp493
Rp494
ag21
(S'cu'
p495
tp496
Rp497
ag21
(S'1o0'
p498
tp499
Rp500
aI9
I01
tp501
Rp502
ag55
(g65
(lp503
g21
(S'p8'
p504
tp505
Rp506
ag21
(S'2da'
p507
tp508
Rp509
ag21
(S'536'
p510
tp511
Rp512
ag21
(S'cu'
p513
tp514
Rp515
ag21
(S'p8'
p516
tp517
Rp518
ag21
(S'2da'
p519
tp520
Rp521
ag21
(S'536'
p522
tp523
Rp524
ag21
(S'cu'
p525
tp526
Rp527
ag21
(S'1to'
p528
tp529
Rp530
aI9
I01
tp531
Rp532
ag55
(g65
(lp533
g21
(S'p8'
p534
tp535
Rp536
ag21
(S'2da'
p537
tp538
Rp539
ag21
(S'536'
p540
tp541
Rp542
ag21
(S'cu'
p543
tp544
Rp545
ag21
(S'p8'
p546
tp547
Rp548
ag21
(S'2da'
p549
tp550
Rp551
ag21
(S'536'
p552
tp553
Rp554
ag21
(S'cu'
p555
tp556
Rp557
ag21
(S'280'
p558
tp559
Rp560
aI9
I01
tp561
Rp562
ag55
(g65
(lp563
g21
(S'p8'
p564
tp565
Rp566
ag21
(S'2da'
p567
tp568
Rp569
ag21
(S'536'
p570
tp571
Rp572
ag21
(S'cu'
p573
tp574
Rp575
ag21
(S'p8'
p576
tp577
Rp578
ag21
(S'2da'
p579
tp580
Rp581
ag21
(S'536'
p582
tp583
Rp584
ag21
(S'cu'
p585
tp586
Rp587
ag21
(S'28q'
p588
tp589
Rp590
aI9
I01
tp591
Rp592
ag55
(g65
(lp593
g21
(S'p8'
p594
tp595
Rp596
ag21
(S'2da'
p597
tp598
Rp599
ag21
(S'536'
p600
tp601
Rp602
ag21
(S'cu'
p603
tp604
Rp605
ag21
(S'p8'
p606
tp607
Rp608
ag21
(S'2da'
p609
tp610
Rp611
ag21
(S'536'
p612
tp613
Rp614
ag21
(S'cu'
p615
tp616
Rp617
ag21
(S'2eb'
p618
tp619
Rp620
aI9
I01
tp621
Rp622
ag55
(g65
(lp623
g21
(S'p8'
p624
tp625
Rp626
ag21
(S'2da'
p627
tp628
Rp629
ag21
(S'536'
p630
tp631
Rp632
ag21
(S'cu'
p633
tp634
Rp635
ag21
(S'p8'
p636
tp637
Rp638
ag21
(S'2da'
p639
tp640
Rp641
ag21
(S'536'
p642
tp643
Rp644
ag21
(S'cu'
p645
tp646
Rp647
ag21
(S'30a'
p648
tp649
Rp650
aI9
I01
tp651
Rp652
ag55
(g65
(lp653
g21
(S'p8'
p654
tp655
Rp656
ag21
(S'2da'
p657
tp658
Rp659
ag21
(S'536'
p660
tp661
Rp662
ag21
(S'cu'
p663
tp664
Rp665
ag21
(S'p8'
p666
tp667
Rp668
ag21
(S'2da'
p669
tp670
Rp671
ag21
(S'536'
p672
tp673
Rp674
ag21
(S'cu'
p675
tp676
Rp677
ag21
(S'3er'
p678
tp679
Rp680
aI9
I01
tp681
Rp682
ag55
(g65
(lp683
g21
(S'p8'
p684
tp685
Rp686
ag21
(S'2da'
p687
tp688
Rp689
ag21
(S'536'
p690
tp691
Rp692
ag21
(S'cu'
p693
tp694
Rp695
ag21
(S'p8'
p696
tp697
Rp698
ag21
(S'2da'
p699
tp700
Rp701
ag21
(S'536'
p702
tp703
Rp704
ag21
(S'cu'
p705
tp706
Rp707
ag21
(S'3hs'
p708
tp709
Rp710
aI9
I01
tp711
Rp712
ag55
(g65
(lp713
g21
(S'p8'
p714
tp715
Rp716
ag21
(S'2da'
p717
tp718
Rp719
ag21
(S'536'
p720
tp721
Rp722
ag21
(S'cu'
p723
tp724
Rp725
ag21
(S'p8'
p726
tp727
Rp728
ag21
(S'2da'
p729
tp730
Rp731
ag21
(S'536'
p732
tp733
Rp734
ag21
(S'cu'
p735
tp736
Rp737
ag21
(S'3kl'
p738
tp739
Rp740
aI9
I01
tp741
Rp742
ag55
(g65
(lp743
g21
(S'p8'
p744
tp745
Rp746
ag21
(S'2da'
p747
tp748
Rp749
ag21
(S'536'
p750
tp751
Rp752
ag21
(S'cu'
p753
tp754
Rp755
ag21
(S'p8'
p756
tp757
Rp758
ag21
(S'2da'
p759
tp760
Rp761
ag21
(S'536'
p762
tp763
Rp764
ag21
(S'cu'
p765
tp766
Rp767
ag21
(S'423'
p768
tp769
Rp770
aI9
I01
tp771
Rp772
ag55
(g65
(lp773
g21
(S'p8'
p774
tp775
Rp776
ag21
(S'2da'
p777
tp778
Rp779
ag21
(S'536'
p780
tp781
Rp782
ag21
(S'cu'
p783
tp784
Rp785
ag21
(S'p8'
p786
tp787
Rp788
ag21
(S'2da'
p789
tp790
Rp791
ag21
(S'536'
p792
tp793
Rp794
ag21
(S'cu'
p795
tp796
Rp797
ag21
(S'4ma'
p798
tp799
Rp800
aI9
I01
tp801
Rp802
ag55
(g65
(lp803
g21
(S'p8'
p804
tp805
Rp806
ag21
(S'2da'
p807
tp808
Rp809
ag21
(S'536'
p810
tp811
Rp812
ag21
(S'cu'
p813
tp814
Rp815
ag21
(S'p8'
p816
tp817
Rp818
ag21
(S'2da'
p819
tp820
Rp821
ag21
(S'536'
p822
tp823
Rp824
ag21
(S'cu'
p825
tp826
Rp827
ag21
(S'4mk'
p828
tp829
Rp830
aI9
I01
tp831
Rp832
a(lp833
g55
(g65
(lp834
g21
(g67
tp835
Rp836
ag21
(g67
tp837
Rp838
ag21
(g67
tp839
Rp840
ag21
(g67
tp841
Rp842
ag21
(S'1'
p843
tp844
Rp845
ag21
(g843
tp846
Rp847
ag21
(g843
tp848
Rp849
ag21
(g843
tp850
Rp851
ag21
(g67
tp852
Rp853
aI9
I01
tp854
Rp855
ag55
(g65
(lp856
g21
(g67
tp857
Rp858
ag21
(g67
tp859
Rp860
ag21
(g67
tp861
Rp862
ag21
(g67
tp863
Rp864
ag21
(g843
tp865
Rp866
ag21
(g843
tp867
Rp868
ag21
(g843
tp869
Rp870
ag21
(g843
tp871
Rp872
ag21
(g67
tp873
Rp874
aI9
I01
tp875
Rp876
ag55
(g65
(lp877
g21
(g67
tp878
Rp879
ag21
(g67
tp880
Rp881
ag21
(g67
tp882
Rp883
ag21
(g67
tp884
Rp885
ag21
(g843
tp886
Rp887
ag21
(g843
tp888
Rp889
ag21
(g843
tp890
Rp891
ag21
(g843
tp892
Rp893
ag21
(g67
tp894
Rp895
aI9
I01
tp896
Rp897
ag55
(g65
(lp898
g21
(g67
tp899
Rp900
ag21
(g67
tp901
Rp902
ag21
(g67
tp903
Rp904
ag21
(g67
tp905
Rp906
ag21
(g843
tp907
Rp908
ag21
(g843
tp909
Rp910
ag21
(g843
tp911
Rp912
ag21
(g843
tp913
Rp914
ag21
(g67
tp915
Rp916
aI9
I01
tp917
Rp918
ag55
(g65
(lp919
g21
(g67
tp920
Rp921
ag21
(g67
tp922
Rp923
ag21
(g67
tp924
Rp925
ag21
(g67
tp926
Rp927
ag21
(g843
tp928
Rp929
ag21
(g843
tp930
Rp931
ag21
(g843
tp932
Rp933
ag21
(g843
tp934
Rp935
ag21
(g67
tp936
Rp937
aI9
I01
tp938
Rp939
ag55
(g65
(lp940
g21
(g67
tp941
Rp942
ag21
(g67
tp943
Rp944
ag21
(g67
tp945
Rp946
ag21
(g67
tp947
Rp948
ag21
(g843
tp949
Rp950
ag21
(g843
tp951
Rp952
ag21
(g843
tp953
Rp954
ag21
(g843
tp955
Rp956
ag21
(g67
tp957
Rp958
aI9
I01
tp959
Rp960
ag55
(g65
(lp961
g21
(g67
tp962
Rp963
ag21
(g67
tp964
Rp965
ag21
(g67
tp966
Rp967
ag21
(g67
tp968
Rp969
ag21
(g843
tp970
Rp971
ag21
(g843
tp972
Rp973
ag21
(g843
tp974
Rp975
ag21
(g843
tp976
Rp977
ag21
(g67
tp978
Rp979
aI9
I01
tp980
Rp981
ag55
(g65
(lp982
g21
(g67
tp983
Rp984
ag21
(g67
tp985
Rp986
ag21
(g67
tp987
Rp988
ag21
(g67
tp989
Rp990
ag21
(g843
tp991
Rp992
ag21
(g843
tp993
Rp994
ag21
(g843
tp995
Rp996
ag21
(g843
tp997
Rp998
ag21
(g67
tp999
Rp1000
aI9
I01
tp1001
Rp1002
ag55
(g65
(lp1003
g21
(g67
tp1004
Rp1005
ag21
(g67
tp1006
Rp1007
ag21
(g67
tp1008
Rp1009
ag21
(g67
tp1010
Rp1011
ag21
(g843
tp1012
Rp1013
ag21
(g843
tp1014
Rp1015
ag21
(g843
tp1016
Rp1017
ag21
(g843
tp1018
Rp1019
ag21
(g67
tp1020
Rp1021
aI9
I01
tp1022
Rp1023
ag55
(g65
(lp1024
g21
(g67
tp1025
Rp1026
ag21
(g67
tp1027
Rp1028
ag21
(g67
tp1029
Rp1030
ag21
(g67
tp1031
Rp1032
ag21
(g843
tp1033
Rp1034
ag21
(g843
tp1035
Rp1036
ag21
(g843
tp1037
Rp1038
ag21
(g843
tp1039
Rp1040
ag21
(g67
tp1041
Rp1042
aI9
I01
tp1043
Rp1044
ag55
(g65
(lp1045
g21
(g67
tp1046
Rp1047
ag21
(g67
tp1048
Rp1049
ag21
(g67
tp1050
Rp1051
ag21
(g67
tp1052
Rp1053
ag21
(g843
tp1054
Rp1055
ag21
(g843
tp1056
Rp1057
ag21
(g843
tp1058
Rp1059
ag21
(g843
tp1060
Rp1061
ag21
(g67
tp1062
Rp1063
aI9
I01
tp1064
Rp1065
ag55
(g65
(lp1066
g21
(g67
tp1067
Rp1068
ag21
(g67
tp1069
Rp1070
ag21
(g67
tp1071
Rp1072
ag21
(g67
tp1073
Rp1074
ag21
(g843
tp1075
Rp1076
ag21
(g843
tp1077
Rp1078
ag21
(g843
tp1079
Rp1080
ag21
(g843
tp1081
Rp1082
ag21
(g67
tp1083
Rp1084
aI9
I01
tp1085
Rp1086
ag55
(g65
(lp1087
g21
(g67
tp1088
Rp1089
ag21
(g67
tp1090
Rp1091
ag21
(g67
tp1092
Rp1093
ag21
(g67
tp1094
Rp1095
ag21
(g843
tp1096
Rp1097
ag21
(g843
tp1098
Rp1099
ag21
(g843
tp1100
Rp1101
ag21
(g843
tp1102
Rp1103
ag21
(g67
tp1104
Rp1105
aI9
I01
tp1106
Rp1107
ag55
(g65
(lp1108
g21
(g67
tp1109
Rp1110
ag21
(g67
tp1111
Rp1112
ag21
(g67
tp1113
Rp1114
ag21
(g67
tp1115
Rp1116
ag21
(g843
tp1117
Rp1118
ag21
(g843
tp1119
Rp1120
ag21
(g843
tp1121
Rp1122
ag21
(g843
tp1123
Rp1124
ag21
(g67
tp1125
Rp1126
aI9
I01
tp1127
Rp1128
ag55
(g65
(lp1129
g21
(g67
tp1130
Rp1131
ag21
(g67
tp1132
Rp1133
ag21
(g67
tp1134
Rp1135
ag21
(g67
tp1136
Rp1137
ag21
(g843
tp1138
Rp1139
ag21
(g843
tp1140
Rp1141
ag21
(g843
tp1142
Rp1143
ag21
(g843
tp1144
Rp1145
ag21
(g67
tp1146
Rp1147
aI9
I01
tp1148
Rp1149
a(lp1150
g55
(g65
(lp1151
g21
(g67
tp1152
Rp1153
ag21
(g67
tp1154
Rp1155
ag21
(g67
tp1156
Rp1157
ag21
(g67
tp1158
Rp1159
ag21
(S'p8'
p1160
tp1161
Rp1162
ag21
(S'2da'
p1163
tp1164
Rp1165
ag21
(S'536'
p1166
tp1167
Rp1168
ag21
(S'cu'
p1169
tp1170
Rp1171
ag21
(S'106'
p1172
tp1173
Rp1174
aI9
I01
tp1175
Rp1176
ag55
(g65
(lp1177
g21
(g67
tp1178
Rp1179
ag21
(g67
tp1180
Rp1181
ag21
(g67
tp1182
Rp1183
ag21
(g67
tp1184
Rp1185
ag21
(g67
tp1186
Rp1187
ag21
(g67
tp1188
Rp1189
ag21
(g67
tp1190
Rp1191
ag21
(g67
tp1192
Rp1193
ag21
(S'13l'
p1194
tp1195
Rp1196
aI9
I01
tp1197
Rp1198
ag55
(g65
(lp1199
g21
(g67
tp1200
Rp1201
ag21
(g67
tp1202
Rp1203
ag21
(g67
tp1204
Rp1205
ag21
(g67
tp1206
Rp1207
ag21
(g67
tp1208
Rp1209
ag21
(g67
tp1210
Rp1211
ag21
(g67
tp1212
Rp1213
ag21
(g67
tp1214
Rp1215
ag21
(S'16p'
p1216
tp1217
Rp1218
aI9
I01
tp1219
Rp1220
ag55
(g65
(lp1221
g21
(g67
tp1222
Rp1223
ag21
(g67
tp1224
Rp1225
ag21
(g67
tp1226
Rp1227
ag21
(g67
tp1228
Rp1229
ag21
(g67
tp1230
Rp1231
ag21
(g67
tp1232
Rp1233
ag21
(g67
tp1234
Rp1235
ag21
(g67
tp1236
Rp1237
ag21
(S'1o0'
p1238
tp1239
Rp1240
aI9
I01
tp1241
Rp1242
ag55
(g65
(lp1243
g21
(g67
tp1244
Rp1245
ag21
(g67
tp1246
Rp1247
ag21
(g67
tp1248
Rp1249
ag21
(g67
tp1250
Rp1251
ag21
(g67
tp1252
Rp1253
ag21
(g67
tp1254
Rp1255
ag21
(g67
tp1256
Rp1257
ag21
(g67
tp1258
Rp1259
ag21
(S'1to'
p1260
tp1261
Rp1262
aI9
I01
tp1263
Rp1264
ag55
(g65
(lp1265
g21
(g67
tp1266
Rp1267
ag21
(g67
tp1268
Rp1269
ag21
(g67
tp1270
Rp1271
ag21
(g67
tp1272
Rp1273
ag21
(g67
tp1274
Rp1275
ag21
(g67
tp1276
Rp1277
ag21
(g67
tp1278
Rp1279
ag21
(g67
tp1280
Rp1281
ag21
(S'280'
p1282
tp1283
Rp1284
aI9
I01
tp1285
Rp1286
ag55
(g65
(lp1287
g21
(g67
tp1288
Rp1289
ag21
(g67
tp1290
Rp1291
ag21
(g67
tp1292
Rp1293
ag21
(g67
tp1294
Rp1295
ag21
(g67
tp1296
Rp1297
ag21
(g67
tp1298
Rp1299
ag21
(g67
tp1300
Rp1301
ag21
(g67
tp1302
Rp1303
ag21
(S'28q'
p1304
tp1305
Rp1306
aI9
I01
tp1307
Rp1308
ag55
(g65
(lp1309
g21
(g67
tp1310
Rp1311
ag21
(g67
tp1312
Rp1313
ag21
(g67
tp1314
Rp1315
ag21
(g67
tp1316
Rp1317
ag21
(g67
tp1318
Rp1319
ag21
(g67
tp1320
Rp1321
ag21
(g67
tp1322
Rp1323
ag21
(g67
tp1324
Rp1325
ag21
(S'2eb'
p1326
tp1327
Rp1328
aI9
I01
tp1329
Rp1330
ag55
(g65
(lp1331
g21
(g67
tp1332
Rp1333
ag21
(g67
tp1334
Rp1335
ag21
(g67
tp1336
Rp1337
ag21
(g67
tp1338
Rp1339
ag21
(g67
tp1340
Rp1341
ag21
(g67
tp1342
Rp1343
ag21
(g67
tp1344
Rp1345
ag21
(g67
tp1346
Rp1347
ag21
(S'30a'
p1348
tp1349
Rp1350
aI9
I01
tp1351
Rp1352
ag55
(g65
(lp1353
g21
(g67
tp1354
Rp1355
ag21
(g67
tp1356
Rp1357
ag21
(g67
tp1358
Rp1359
ag21
(g67
tp1360
Rp1361
ag21
(g67
tp1362
Rp1363
ag21
(g67
tp1364
Rp1365
ag21
(g67
tp1366
Rp1367
ag21
(g67
tp1368
Rp1369
ag21
(S'3er'
p1370
tp1371
Rp1372
aI9
I01
tp1373
Rp1374
ag55
(g65
(lp1375
g21
(g67
tp1376
Rp1377
ag21
(g67
tp1378
Rp1379
ag21
(g67
tp1380
Rp1381
ag21
(g67
tp1382
Rp1383
ag21
(g67
tp1384
Rp1385
ag21
(g67
tp1386
Rp1387
ag21
(g67
tp1388
Rp1389
ag21
(g67
tp1390
Rp1391
ag21
(S'3hs'
p1392
tp1393
Rp1394
aI9
I01
tp1395
Rp1396
ag55
(g65
(lp1397
g21
(g67
tp1398
Rp1399
ag21
(g67
tp1400
Rp1401
ag21
(g67
tp1402
Rp1403
ag21
(g67
tp1404
Rp1405
ag21
(g67
tp1406
Rp1407
ag21
(g67
tp1408
Rp1409
ag21
(g67
tp1410
Rp1411
ag21
(g67
tp1412
Rp1413
ag21
(S'3kl'
p1414
tp1415
Rp1416
aI9
I01
tp1417
Rp1418
ag55
(g65
(lp1419
g21
(g67
tp1420
Rp1421
ag21
(g67
tp1422
Rp1423
ag21
(g67
tp1424
Rp1425
ag21
(g67
tp1426
Rp1427
ag21
(g67
tp1428
Rp1429
ag21
(g67
tp1430
Rp1431
ag21
(g67
tp1432
Rp1433
ag21
(g67
tp1434
Rp1435
ag21
(S'423'
p1436
tp1437
Rp1438
aI9
I01
tp1439
Rp1440
ag55
(g65
(lp1441
g21
(g67
tp1442
Rp1443
ag21
(g67
tp1444
Rp1445
ag21
(g67
tp1446
Rp1447
ag21
(g67
tp1448
Rp1449
ag21
(g67
tp1450
Rp1451
ag21
(g67
tp1452
Rp1453
ag21
(g67
tp1454
Rp1455
ag21
(g67
tp1456
Rp1457
ag21
(S'4ma'
p1458
tp1459
Rp1460
aI9
I01
tp1461
Rp1462
ag55
(g65
(lp1463
g21
(g67
tp1464
Rp1465
ag21
(g67
tp1466
Rp1467
ag21
(g67
tp1468
Rp1469
ag21
(g67
tp1470
Rp1471
ag21
(g67
tp1472
Rp1473
ag21
(g67
tp1474
Rp1475
ag21
(g67
tp1476
Rp1477
ag21
(g67
tp1478
Rp1479
ag21
(S'4mk'
p1480
tp1481
Rp1482
aI9
I01
tp1483
Rp1484
atp1485
.