(csage.matrix.matrix0
unpickle
p0
(csage.matrix.matrix_integer_dense
Matrix_integer_dense
p1
csage.structure.unique_representation
unreduce
p2
(csage.matrix.matrix_space
MatrixSpace
p3
(csage.rings.integer_ring
IntegerRing
p4
(tRp5
I1
I9
I00
S'flint'
p6
tp7
(dp8
tp9
Rp10
I00
NS'2 3 d 13 0 0 0 0 1'
p11
I0
tp12
Rp13
g0
(g1
g2
(g3
(g5
I4
I9
I00
g6
tp14
(dp15
tp16
Rp17
I00
NS'1 0 0 0 1 0 0 0 0 0 1 0 0 0 1 0 0 0 0 0 1 0 0 0 1 0 0 0 0 0 1 0 0 0 1 0'
p18
I0
tp19
Rp20
csage.rings.integer
make_integer
p21
(S'f'
p22
tp23
Rp24
(lp25
(g21
(S'67h'
p26
tp27
Rp28
g21
(S'2q1'
p29
tp30
Rp31
g21
(S'f7'
p32
tp33
Rp34
g21
(S'ts'
p35
tp36
Rp37
tp38
a(I2179
tp39
a(I2368
tp40
a(I2574
tp41
a(I3079
tp42
a(I3093
tp43
a(I3543
tp44
a(I4502
tp45
a(I5393
tp46
a(I5401
tp47
a(I6175
tp48
a(I6672
tp49
a(I6804
tp50
a(I7662
tp51
a(I8949
tp52
a(I9306
tp53
a(lp54
csage.modules.vector_integer_dense
unpickle_v1
p55
(csage.structure.factory
generic_factory_unpickle
p56
(csage.structure.factory
lookup_global
p57
(S'FreeModule'
p58
tp59
Rp60
(I7
I6
tp61
(g5
I9
I00
Ntp62
(dp63
tp64
Rp65
(lp66
g21
(S'0'
p67
tp68
Rp69
ag21
(g67
tp70
Rp71
ag21
(g67
tp72
Rp73
ag21
(g67
tp74
Rp75
ag21
(g67
tp76
Rp77
ag21
(g67
tp78
Rp79
ag21
(g67
tp80
Rp81
ag21
(g67
tp82
Rp83
ag21
(g67
tp84
Rp85
aI9
I01
tp86
Rp87
ag55
(g65
(lp88
g21
(g67
tp89
Rp90
ag21
(g67
tp91
Rp92
ag21
(g67
tp93
Rp94
ag21
(g67
tp95
Rp96
ag21
(g67
tp97
Rp98
ag21
(g67
tp99
Rp100
ag21
(g67
tp101
Rp102
ag21
(g67
tp103
Rp104
ag21
(g67
tp105
Rp106
aI9
I01
tp107
Rp108
ag55
(g65
(lp109
g21
(g67
tp110
Rp111
ag21
(g67
tp112
Rp113
ag21
(g67
tp114
Rp115
ag21
(g67
tp116
Rp117
ag21
(g67
tp118
Rp119
ag21
(g67
tp120
Rp121
ag21
(g67
tp122
Rp123
ag21
(g67
tp124
Rp125
ag21
(g67
tp126
Rp127
aI9
I01
tp128
Rp129
ag55
(g65
(lp130
g21
(g67
tp131
Rp132
ag21
(g67
tp133
Rp134
ag21
(g67
tp135
Rp136
ag21
(g67
tp137
Rp138
ag21
(g67
tp139
Rp140
ag21
(g67
tp141
Rp142
ag21
(g67
tp143
Rp144
ag21
(g67
tp145
Rp146
ag21
(g67
tp147
Rp148
aI9
I01
tp149
Rp150
ag55
(g65
(lp151
g21
(g67
tp152
Rp153
ag21
(g67
tp154
Rp155
ag21
(g67
tp156
Rp157
ag21
(g67
tp158
Rp159
ag21
(g67
tp160
Rp161
ag21
(g67
tp162
Rp163
ag21
(g67
tp164
Rp165
ag21
(g67
tp166
Rp167
ag21
(g67
tp168
Rp169
aI9
I01
tp170
Rp171
ag55
(g65
(lp172
g21
(g67
tp173
Rp174
ag21
(g67
tp175
Rp176
ag21
(g67
tp177
Rp178
ag21
(g67
tp179
Rp180
ag21
(g67
tp181
Rp182
ag21
(g67
tp183
Rp184
ag21
(g67
tp185
Rp186
ag21
(g67
tp187
Rp188
ag21
(g67
tp189
Rp190
aI9
I01
tp191
Rp192
ag55
(g65
(lp193
g21
(g67
tp194
Rp195
ag21
(g67
tp196
Rp197
ag21
(g67
tp198
Rp199
ag21
(g67
tp200
Rp201
ag21
(g67
tp202
Rp203
ag21
(g67
tp204
Rp205
ag21
(g67
tp206
Rp207
ag21
(g67
tp208
Rp209
ag21
(g67
tp210
Rp211
aI9
I01
tp212
Rp213
ag55
(g65
(lp214
g21
(g67
tp215
Rp216
ag21
(g67
tp217
Rp218
ag21
(g67
tp219
Rp220
ag21
(g67
tp221
Rp222
ag21
(g67
tp223
Rp224
ag21
(g67
tp225
Rp226
ag21
(g67
tp227
Rp228
ag21
(g67
tp229
Rp230
ag21
(g67
tp231
Rp232
aI9
I01
tp233
Rp234
ag55
(g65
(lp235
g21
(g67
tp236
Rp237
ag21
(g67
tp238
Rp239
ag21
(g67
tp240
Rp241
ag21
(g67
tp242
Rp243
ag21
(g67
tp244
Rp245
ag21
(g67
tp246
Rp247
ag21
(g67
tp248
Rp249
ag21
(g67
tp250
Rp251
ag21
(g67
tp252
Rp253
aI9
I01
tp254
Rp255
ag55
(g65
(lp256
g21
(g67
tp257
Rp258
ag21
(g67
tp259
Rp260
ag21
(g67
tp261
Rp262
ag21
(g67
tp263
Rp264
ag21
(g67
tp265
Rp266
ag21
(g67
tp267
Rp268
ag21
(g67
tp269
Rp270
ag21
(g67
tp271
Rp272
ag21
(g67
tp273
Rp274
aI9
I01
tp275
Rp276
ag55
(g65
(lp277
g21
(g67
tp278
Rp279
ag21
(g67
tp280
Rp281
ag21
(g67
tp282
Rp283
ag21
(g67
tp284
Rp285
ag21
(g67
tp286
Rp287
ag21
(g67
tp288
Rp289
ag21
(g67
tp290
Rp291
ag21
(g67
tp292
Rp293
ag21
(g67
tp294
Rp295
aI9
I01
tp296
Rp297
ag55
(g65
(lp298
g21
(g67
tp299
Rp300
ag21
(g67
tp301
Rp302
ag21
(g67
tp303
Rp304
ag21
(g67
tp305
Rp306
ag21
(g67
tp307
Rp308
ag21
(g67
tp309
Rp310
ag21
(g67
tp311
Rp312
ag21
(g67
tp313
Rp314
ag21
(g67
tp315
Rp316
aI9
I01
tp317
Rp318
ag55
(g65
(lp319
g21
(g67
tp320
Rp321
ag21
(g67
tp322
Rp323
ag21
(g67
tp324
Rp325
ag21
(g67
tp326
Rp327
ag21
(g67
tp328
Rp329
ag21
(g67
tp330
Rp331
ag21
(g67
tp332
Rp333
ag21
(g67
tp334
Rp335
ag21
(g67
tp336
Rp337
aI9
I01
tp338
Rp339
ag55
(g65
(lp340
g21
(g67
tp341
Rp342
ag21
(g67
tp343
Rp344
ag21
(g67
tp345
Rp346
ag21
(g67
tp347
Rp348
ag21
(g67
tp349
Rp350
ag21
(g67
tp351
Rp352
ag21
(g67
tp353
Rp354
ag21
(g67
tp355
Rp356
ag21
(g67
tp357
Rp358
aI9
I01
tp359
Rp360
ag55
(g65
(lp361
g21
(g67
tp362
Rp363
ag21
(g67
tp364
Rp365
ag21
(g67
tp366
Rp367
ag21
(g67
tp368
Rp369
ag21
(g67
tp370
Rp371
ag21
(g67
tp372
Rp373
ag21
(g67
tp374
Rp375
ag21
(g67
tp376
Rp377
ag21
(g67
tp378
Rp379
aI9
I01
tp380
Rp381
a(lp382
g55
(g65
(lp383
g21
(S'67h'
p384
tp385
Rp386
ag21
(S'2q1'
p387
tp388
Rp389
ag21
(S'f7'
p390
tp391
Rp392
ag21
(S'ts'
p393
tp394
Rp395
ag21
(S'67h'
p396
tp397
Rp398
ag21
(S'2q1'
p399
tp400
Rp401
ag21
(S'f7'
p402
tp403
Rp404
ag21
(S'ts'
p405
tp406
Rp407
ag21
(S'243'
p408
tp409
Rp410
aI9
I01
tp411
Rp412
ag55
(g65
(lp413
g21
(S'67h'
p414
tp415
Rp416
ag21
(S'2q1'
p417
tp418
Rp419
ag21
(S'f7'
p420
tp421
Rp422
ag21
(S'ts'
p423
tp424
Rp425
ag21
(S'67h'
p426
tp427
Rp428
ag21
(S'2q1'
p429
tp430
Rp431
ag21
(S'f7'
p432
tp433
Rp434
ag21
(S'ts'
p435
tp436
Rp437
ag21
(S'2a0'
p438
tp439
Rp440
aI9
I01
tp441
Rp442
ag55
(g65
(lp443
g21
(S'67h'
p444
tp445
Rp446
ag21
(S'2q1'
p447
tp448
Rp449
ag21
(S'f7'
p450
tp451
Rp452
ag21
(S'ts'
p453
tp454
Rp455
ag21
(S'67h'
p456
tp457
Rp458
ag21
(S'2q1'
p459
tp460
Rp461
ag21
(S'f7'
p462
tp463
Rp464
ag21
(S'ts'
p465
tp466
Rp467
ag21
(S'2ge'
p468
tp469
Rp470
aI9
I01
tp471
Rp472
ag55
(g65
(lp473
g21
(S'67h'
p474
tp475
Rp476
ag21
(S'2q1'
p477
tp478
Rp479
ag21
(S'f7'
p480
tp481
Rp482
ag21
(S'ts'
p483
tp484
Rp485
ag21
(S'67h'
p486
tp487
Rp488
ag21
(S'2q1'
p489
tp490
Rp491
ag21
(S'f7'
p492
tp493
Rp494
ag21
(S'ts'
p495
tp496
Rp497
ag21
(S'307'
p498
tp499
Rp500
aI9
I01
tp501
Rp502
ag55
(g65
(lp503
g21
(S'67h'
p504
tp505
Rp506
ag21
(S'2q1'
p507
tp508
Rp509
ag21
(S'f7'
p510
tp511
Rp512
ag21
(S'ts'
p513
tp514
Rp515
ag21
(S'67h'
p516
tp517
Rp518
ag21
(S'2q1'
p519
tp520
Rp521
ag21
(S'f7'
p522
tp523
Rp524
ag21
(S'ts'
p525
tp526
Rp527
ag21
(S'30l'
p528
tp529
Rp530
aI9
I01
tp531
Rp532
ag55
(g65
(lp533
g21
(S'67h'
p534
tp535
Rp536
ag21
(S'2q1'
p537
tp538
Rp539
ag21
(S'f7'
p540
tp541
Rp542
ag21
(S'ts'
p543
tp544
Rp545
ag21
(S'67h'
p546
tp547
Rp548
ag21
(S'2q1'
p549
tp550
Rp551
ag21
(S'f7'
p552
tp553
Rp554
ag21
(S'ts'
p555
tp556
Rp557
ag21
(S'3en'
p558
tp559
Rp560
aI9
I01
tp561
Rp562
ag55
(g65
(lp563
g21
(S'67h'
p564
tp565
Rp566
ag21
(S'2q1'
p567
tp568
Rp569
ag21
(S'f7'
p570
tp571
Rp572
ag21
(S'ts'
p573
tp574
Rp575
ag21
(S'67h'
p576
tp577
Rp578
ag21
(S'2q1'
p579
tp580
Rp581
ag21
(S'f7'
p582
tp583
Rp584
ag21
(S'ts'
p585
tp586
Rp587
ag21
(S'4cm'
p588
tp589
Rp590
aI9
I01
tp591
Rp592
ag55
(g65
(lp593
g21
(S'67h'
p594
tp595
Rp596
ag21
(S'2q1'
p597
tp598
Rp599
ag21
(S'f7'
p600
tp601
Rp602
ag21
(S'ts'
p603
tp604
Rp605
ag21
(S'67h'
p606
tp607
Rp608
ag21
(S'2q1'
p609
tp610
Rp611
ag21
(S'f7'
p612
tp613
Rp614
ag21
(S'ts'
p615
tp616
Rp617
ag21
(S'58h'
p618
tp619
Rp620
aI9
I01
tp621
Rp622
ag55
(g65
(lp623
g21
(S'67h'
p624
tp625
Rp626
ag21
(S'2q1'
p627
tp628
Rp629
ag21
(S'f7'
p630
tp631
Rp632
ag21
(S'ts'
p633
tp634
Rp635
ag21
(S'67h'
p636
tp637
Rp638
ag21
(S'2q1'
p639
tp640
Rp641
ag21
(S'f7'
p642
tp643
Rp644
ag21
(S'ts'
p645
tp646
Rp647
ag21
(S'58p'
p648
tp649
Rp650
aI9
I01
tp651
Rp652
ag55
(g65
(lp653
g21
(S'67h'
p654
tp655
Rp656
ag21
(S'2q1'
p657
tp658
Rp659
ag21
(S'f7'
p660
tp661
Rp662
ag21
(S'ts'
p663
tp664
Rp665
ag21
(S'67h'
p666
tp667
Rp668
ag21
(S'2q1'
p669
tp670
Rp671
ag21
(S'f7'
p672
tp673
Rp674
ag21
(S'ts'
p675
tp676
Rp677
ag21
(S'60v'
p678
tp679
Rp680
aI9
I01
tp681
Rp682
ag55
(g65
(lp683
g21
(S'67h'
p684
tp685
Rp686
ag21
(S'2q1'
p687
tp688
Rp689
ag21
(S'f7'
p690
tp691
Rp692
ag21
(S'ts'
p693
tp694
Rp695
ag21
(S'67h'
p696
tp697
Rp698
ag21
(S'2q1'
p699
tp700
Rp701
ag21
(S'f7'
p702
tp703
Rp704
ag21
(S'ts'
p705
tp706
Rp707
ag21
(S'6gg'
p708
tp709
Rp710
aI9
I01
tp711
Rp712
ag55
(g65
(lp713
g21
(S'67h'
p714
tp715
Rp716
ag21
(S'2q1'
p717
tp718
Rp719
ag21
(S'f7'
p720
tp721
Rp722
ag21
(S'ts'
p723
tp724
Rp725
ag21
(S'67h'
p726
tp727
Rp728
ag21
(S'2q1'
p729
tp730
Rp731
ag21
(S'f7'
p732
tp733
Rp734
ag21
(S'ts'
p735
tp736
Rp737
ag21
(S'6kk'
p738
tp739
Rp740
aI9
I01
tp741
Rp742
ag55
(g65
(lp743
g21
(S'67h'
p744
tp745
Rp746
ag21
(S'2q1'
p747
tp748
Rp749
ag21
(S'f7'
p750
tp751
Rp752
ag21
(S'ts'
p753
tp754
Rp755
ag21
(S'67h'
p756
tp757
Rp758
ag21
(S'2q1'
p759
tp760
Rp761
ag21
(S'f7'
p762
tp763
Rp764
ag21
(S'ts'
p765
tp766
Rp767
ag21
(S'7fe'
p768
tp769
Rp770
aI9
I01
tp771
Rp772
ag55
(g65
(lp773
g21
(S'67h'
p774
tp775
Rp776
ag21
(S'2q1'
p777
tp778
Rp779
ag21
(S'f7'
p780
tp781
Rp782
ag21
(S'ts'
p783
tp784
Rp785
ag21
(S'67h'
p786
tp787
Rp788
ag21
(S'2q1'
p789
tp790
Rp791
ag21
(S'f7'
p792
tp793
Rp794
ag21
(S'ts'
p795
tp796
Rp797
ag21
(S'8nl'
p798
tp799
Rp800
aI9
I01
tp801
Rp802
ag55
(g65
(lp803
g21
(S'67h'
p804
tp805
Rp806
ag21
(S'2q1'
p807
tp808
Rp809
ag21
(S'f7'
p810
tp811
Rp812
ag21
(S'ts'
p813
tp814
Rp815
ag21
(S'67h'
p816
tp817
Rp818
ag21
(S'2q1'
p819
tp820
Rp821
ag21
(S'f7'
p822
tp823
Rp824
ag21
(S'ts'
p825
tp826
Rp827
ag21
(S'92q'
p828
tp829
Rp830
aI9
I01
tp831
Rp832
a(lp833
g55
(g65
(lp834
g21
(g67
tp835
Rp836
ag21
(g67
tp837
Rp838
ag21
(g67
tp839
Rp840
ag21
(g67
tp841
Rp842
ag21
(S'3'
p843
tp844
Rp845
ag21
(S'2'
p846
tp847
Rp848
ag21
(S'13'
p849
tp850
Rp851
ag21
(S'd'
p852
tp853
Rp854
ag21
(g67
tp855
Rp856
aI9
I01
tp857
Rp858
ag55
(g65
(lp859
g21
(g67
tp860
Rp861
ag21
(g67
tp862
Rp863
ag21
(g67
tp864
Rp865
ag21
(g67
tp866
Rp867
ag21
(g843
tp868
Rp869
ag21
(g846
tp870
Rp871
ag21
(S'13'
p872
tp873
Rp874
ag21
(g852
tp875
Rp876
ag21
(g67
tp877
Rp878
aI9
I01
tp879
Rp880
ag55
(g65
(lp881
g21
(g67
tp882
Rp883
ag21
(g67
tp884
Rp885
ag21
(g67
tp886
Rp887
ag21
(g67
tp888
Rp889
ag21
(g843
tp890
Rp891
ag21
(g846
tp892
Rp893
ag21
(S'13'
p894
tp895
Rp896
ag21
(g852
tp897
Rp898
ag21
(g67
tp899
Rp900
aI9
I01
tp901
Rp902
ag55
(g65
(lp903
g21
(g67
tp904
Rp905
ag21
(g67
tp906
Rp907
ag21
(g67
tp908
Rp909
ag21
(g67
tp910
Rp911
ag21
(g843
tp912
Rp913
ag21
(g846
tp914
Rp915
ag21
(S'13'
p916
tp917
Rp918
ag21
(g852
tp919
Rp920
ag21
(g67
tp921
Rp922
aI9
I01
tp923
Rp924
ag55
(g65
(lp925
g21
(g67
tp926
Rp927
ag21
(g67
tp928
Rp929
ag21
(g67
tp930
Rp931
ag21
(g67
tp932
Rp933
ag21
(g843
tp934
Rp935
ag21
(g846
tp936
Rp937
ag21
(S'13'
p938
tp939
Rp940
ag21
(g852
tp941
Rp942
ag21
(g67
tp943
Rp944
aI9
I01
tp945
Rp946
ag55
(g65
(lp947
g21
(g67
tp948
Rp949
ag21
(g67
tp950
Rp951
ag21
(g67
tp952
Rp953
ag21
(g67
tp954
Rp955
ag21
(g843
tp956
Rp957
ag21
(g846
tp958
Rp959
ag21
(S'13'
p960
tp961
Rp962
ag21
(g852
tp963
Rp964
ag21
(g67
tp965
Rp966
aI9
I01
tp967
Rp968
ag55
(g65
(lp969
g21
(g67
tp970
Rp971
ag21
(g67
tp972
Rp973
ag21
(g67
tp974
Rp975
ag21
(g67
tp976
Rp977
ag21
(g843
tp978
Rp979
ag21
(g846
tp980
Rp981
ag21
(S'13'
p982
tp983
Rp984
ag21
(g852
tp985
Rp986
ag21
(g67
tp987
Rp988
aI9
I01
tp989
Rp990
ag55
(g65
(lp991
g21
(g67
tp992
Rp993
ag21
(g67
tp994
Rp995
ag21
(g67
tp996
Rp997
ag21
(g67
tp998
Rp999
ag21
(g843
tp1000
Rp1001
ag21
(g846
tp1002
Rp1003
ag21
(S'13'
p1004
tp1005
Rp1006
ag21
(g852
tp1007
Rp1008
ag21
(g67
tp1009
Rp1010
aI9
I01
tp1011
Rp1012
ag55
(g65
(lp1013
g21
(g67
tp1014
Rp1015
ag21
(g67
tp1016
Rp1017
ag21
(g67
tp1018
Rp1019
ag21
(g67
tp1020
Rp1021
ag21
(g843
tp1022
Rp1023
ag21
(g846
tp1024
Rp1025
ag21
(S'13'
p1026
tp1027
Rp1028
ag21
(g852
tp1029
Rp1030
ag21
(g67
tp1031
Rp1032
aI9
I01
tp1033
Rp1034
ag55
(g65
(lp1035
g21
(g67
tp1036
Rp1037
ag21
(g67
tp1038
Rp1039
ag21
(g67
tp1040
Rp1041
ag21
(g67
tp1042
Rp1043
ag21
(g843
tp1044
Rp1045
ag21
(g846
tp1046
Rp1047
ag21
(S'13'
p1048
tp1049
Rp1050
ag21
(g852
tp1051
Rp1052
ag21
(g67
tp1053
Rp1054
aI9
I01
tp1055
Rp1056
ag55
(g65
(lp1057
g21
(g67
tp1058
Rp1059
ag21
(g67
tp1060
Rp1061
ag21
(g67
tp1062
Rp1063
ag21
(g67
tp1064
Rp1065
ag21
(g843
tp1066
Rp1067
ag21
(g846
tp1068
Rp1069
ag21
(S'13'
p1070
tp1071
Rp1072
ag21
(g852
tp1073
Rp1074
ag21
(g67
tp1075
Rp1076
aI9
I01
tp1077
Rp1078
ag55
(g65
(lp1079
g21
(g67
tp1080
Rp1081
ag21
(g67
tp1082
Rp1083
ag21
(g67
tp1084
Rp1085
ag21
(g67
tp1086
Rp1087
ag21
(g843
tp1088
Rp1089
ag21
(g846
tp1090
Rp1091
ag21
(S'13'
p1092
tp1093
Rp1094
ag21
(g852
tp1095
Rp1096
ag21
(g67
tp1097
Rp1098
aI9
I01
tp1099
Rp1100
ag55
(g65
(lp1101
g21
(g67
tp1102
Rp1103
ag21
(g67
tp1104
Rp1105
ag21
(g67
tp1106
Rp1107
ag21
(g67
tp1108
Rp1109
ag21
(g843
tp1110
Rp1111
ag21
(g846
tp1112
Rp1113
ag21
(S'13'
p1114
tp1115
Rp1116
ag21
(g852
tp1117
Rp1118
ag21
(g67
tp1119
Rp1120
aI9
I01
tp1121
Rp1122
ag55
(g65
(lp1123
g21
(g67
tp1124
Rp1125
ag21
(g67
tp1126
Rp1127
ag21
(g67
tp1128
Rp1129
ag21
(g67
tp1130
Rp1131
ag21
(g843
tp1132
Rp1133
ag21
(g846
tp1134
Rp1135
ag21
(S'13'
p1136
tp1137
Rp1138
ag21
(g852
tp1139
Rp1140
ag21
(g67
tp1141
Rp1142
aI9
I01
tp1143
Rp1144
ag55
(g65
(lp1145
g21
(g67
tp1146
Rp1147
ag21
(g67
tp1148
Rp1149
ag21
(g67
tp1150
Rp1151
ag21
(g67
tp1152
Rp1153
ag21
(g843
tp1154
Rp1155
ag21
(g846
tp1156
Rp1157
ag21
(S'13'
p1158
tp1159
Rp1160
ag21
(g852
tp1161
Rp1162
ag21
(g67
tp1163
Rp1164
aI9
I01
tp1165
Rp1166
a(lp1167
g55
(g65
(lp1168
g21
(g67
tp1169
Rp1170
ag21
(g67
tp1171
Rp1172
ag21
(g67
tp1173
Rp1174
ag21
(g67
tp1175
Rp1176
ag21
(S'67h'
p1177
tp1178
Rp1179
ag21
(S'2q1'
p1180
tp1181
Rp1182
ag21
(S'f7'
p1183
tp1184
Rp1185
ag21
(S'ts'
p1186
tp1187
Rp1188
ag21
(S'243'
p1189
tp1190
Rp1191
aI9
I01
tp1192
Rp1193
ag55
(g65
(lp1194
g21
(g67
tp1195
Rp1196
ag21
(g67
tp1197
Rp1198
ag21
(g67
tp1199
Rp1200
ag21
(g67
tp1201
Rp1202
ag21
(g67
tp1203
Rp1204
ag21
(g67
tp1205
Rp1206
ag21
(g67
tp1207
Rp1208
ag21
(g67
tp1209
Rp1210
ag21
(S'2a0'
p1211
tp1212
Rp1213
aI9
I01
tp1214
Rp1215
ag55
(g65
(lp1216
g21
(g67
tp1217
Rp1218
ag21
(g67
tp1219
Rp1220
ag21
(g67
tp1221
Rp1222
ag21
(g67
tp1223
Rp1224
ag21
(g67
tp1225
Rp1226
ag21
(g67
tp1227
Rp1228
ag21
(g67
tp1229
Rp1230
ag21
(g67
tp1231
Rp1232
ag21
(S'2ge'
p1233
tp1234
Rp1235
aI9
I01
tp1236
Rp1237
ag55
(g65
(lp1238
g21
(g67
tp1239
Rp1240
ag21
(g67
tp1241
Rp1242
ag21
(g67
tp1243
Rp1244
ag21
(g67
tp1245
Rp1246
ag21
(g67
tp1247
Rp1248
ag21
(g67
tp1249
Rp1250
ag21
(g67
tp1251
Rp1252
ag21
(g67
tp1253
Rp1254
ag21
(S'307'
p1255
tp1256
Rp1257
aI9
I01
tp1258
Rp1259
ag55
(g65
(lp1260
g21
(g67
tp1261
Rp1262
ag21
(g67
tp1263
Rp1264
ag21
(g67
tp1265
Rp1266
ag21
(g67
tp1267
Rp1268
ag21
(g67
tp1269
Rp1270
ag21
(g67
tp1271
Rp1272
ag21
(g67
tp1273
Rp1274
ag21
(g67
tp1275
Rp1276
ag21
(S'30l'
p1277
tp1278
Rp1279
aI9
I01
tp1280
Rp1281
ag55
(g65
(lp1282
g21
(g67
tp1283
Rp1284
ag21
(g67
tp1285
Rp1286
ag21
(g67
tp1287
Rp1288
ag21
(g67
tp1289
Rp1290
ag21
(g67
tp1291
Rp1292
ag21
(g67
tp1293
Rp1294
ag21
(g67
tp1295
Rp1296
ag21
(g67
tp1297
Rp1298
ag21
(S'3en'
p1299
tp1300
Rp1301
aI9
I01
tp1302
Rp1303
ag55
(g65
(lp1304
g21
(g67
tp1305
Rp1306
ag21
(g67
tp1307
Rp1308
ag21
(g67
tp1309
Rp1310
ag21
(g67
tp1311
Rp1312
ag21
(g67
tp1313
Rp1314
ag21
(g67
tp1315
Rp1316
ag21
(g67
tp1317
Rp1318
ag21
(g67
tp1319
Rp1320
ag21
(S'4cm'
p1321
tp1322
Rp1323
aI9
I01
tp1324
Rp1325
ag55
(g65
(lp1326
g21
(g67
tp1327
Rp1328
ag21
(g67
tp1329
Rp1330
ag21
(g67
tp1331
Rp1332
ag21
(g67
tp1333
Rp1334
ag21
(g67
tp1335
Rp1336
ag21
(g67
tp1337
Rp1338
ag21
(g67
tp1339
Rp1340
ag21
(g67
tp1341
Rp1342
ag21
(S'58h'
p1343
tp1344
Rp1345
aI9
I01
tp1346
Rp1347
ag55
(g65
(lp1348
g21
(g67
tp1349
Rp1350
ag21
(g67
tp1351
Rp1352
ag21
(g67
tp1353
Rp1354
ag21
(g67
tp1355
Rp1356
ag21
(g67
tp1357
Rp1358
ag21
(g67
tp1359
Rp1360
ag21
(g67
tp1361
Rp1362
ag21
(g67
tp1363
Rp1364
ag21
(S'58p'
p1365
tp1366
Rp1367
aI9
I01
tp1368
Rp1369
ag55
(g65
(lp1370
g21
(g67
tp1371
Rp1372
ag21
(g67
tp1373
Rp1374
ag21
(g67
tp1375
Rp1376
ag21
(g67
tp1377
Rp1378
ag21
(g67
tp1379
Rp1380
ag21
(g67
tp1381
Rp1382
ag21
(g67
tp1383
Rp1384
ag21
(g67
tp1385
Rp1386
ag21
(S'60v'
p1387
tp1388
Rp1389
aI9
I01
tp1390
Rp1391
ag55
(g65
(lp1392
g21
(g67
tp1393
Rp1394
ag21
(g67
tp1395
Rp1396
ag21
(g67
tp1397
Rp1398
ag21
(g67
tp1399
Rp1400
ag21
(g67
tp1401
Rp1402
ag21
(g67
tp1403
Rp1404
ag21
(g67
tp1405
Rp1406
ag21
(g67
tp1407
Rp1408
ag21
(S'6gg'
p1409
tp1410
Rp1411
aI9
I01
tp1412
Rp1413
ag55
(g65
(lp1414
g21
(g67
tp1415
Rp1416
ag21
(g67
tp1417
Rp1418
ag21
(g67
tp1419
Rp1420
ag21
(g67
tp1421
Rp1422
ag21
(g67
tp1423
Rp1424
ag21
(g67
tp1425
Rp1426
ag21
(g67
tp1427
Rp1428
ag21
(g67
tp1429
Rp1430
ag21
(S'6kk'
p1431
tp1432
Rp1433
aI9
I01
tp1434
Rp1435
ag55
(g65
(lp1436
g21
(g67
tp1437
Rp1438
ag21
(g67
tp1439
Rp1440
ag21
(g67
tp1441
Rp1442
ag21
(g67
tp1443
Rp1444
ag21
(g67
tp1445
Rp1446
ag21
(g67
tp1447
Rp1448
ag21
(g67
tp1449
Rp1450
ag21
(g67
tp1451
Rp1452
ag21
(S'7fe'
p1453
tp1454
Rp1455
aI9
I01
tp1456
Rp1457
ag55
(g65
(lp1458
g21
(g67
tp1459
Rp1460
ag21
(g67
tp1461
Rp1462
ag21
(g67
tp1463
Rp1464
ag21
(g67
tp1465
Rp1466
ag21
(g67
tp1467
Rp1468
ag21
(g67
tp1469
Rp1470
ag21
(g67
tp1471
Rp1472
ag21
(g67
tp1473
Rp1474
ag21
(S'8nl'
p1475
tp1476
Rp1477
aI9
I01
tp1478
Rp1479
ag55
(g65
(lp1480
g21
(g67
tp1481
Rp1482
ag21
(g67
tp1483
Rp1484
ag21
(g67
tp1485
Rp1486
ag21
(g67
tp1487
Rp1488
ag21
(g67
tp1489
Rp1490
ag21
(g67
tp1491
Rp1492
ag21
(g67
tp1493
Rp1494
ag21
(g67
tp1495
Rp1496
ag21
(S'92q'
p1497
tp1498
Rp1499
aI9
I01
tp1500
Rp1501
atp1502
.