(csage.matrix.matrix0
unpickle
p0
(csage.matrix.matrix_integer_dense
Matrix_integer_dense
p1
csage.structure.unique_representation
unreduce
p2
(csage.matrix.matrix_space
MatrixSpace
p3
(csage.rings.integer_ring
IntegerRing
p4
(tRp5
I1
I9
I00
S'flint'
p6
tp7
(dp8
tp9
Rp10
I00
NS'2 3 7 t 0 0 0 0 1'
p11
I0
tp12
Rp13
g0
(g1
g2
(g3
(g5
I4
I9
I00
g6
tp14
(dp15
tp16
Rp17
I00
NS'1 0 0 0 1 0 0 0 0 0 1 0 0 0 1 0 0 0 0 0 1 0 0 0 1 0 0 0 0 0 1 0 0 0 1 0'
p18
I0
tp19
Rp20
csage.rings.integer
make_integer
p21
(S'f'
p22
tp23
Rp24
(lp25
(g21
(S'403'
p26
tp27
Rp28
g21
(S'83b'
p29
tp30
Rp31
g21
(S'll'
p32
tp33
Rp34
g21
(S'1bb'
p35
tp36
Rp37
tp38
a(I2054
tp39
a(I2605
tp40
a(I2886
tp41
a(I3254
tp42
a(I4257
tp43
a(I4355
tp44
a(I6467
tp45
a(I6578
tp46
a(I6730
tp47
a(I6858
tp48
a(I7003
tp49
a(I7296
tp50
a(I7705
tp51
a(I7834
tp52
a(I7989
tp53
a(lp54
csage.modules.vector_integer_dense
unpickle_v1
p55
(csage.structure.factory
generic_factory_unpickle
p56
(csage.structure.factory
lookup_global
p57
(S'FreeModule'
p58
tp59
Rp60
(I7
I6
tp61
(g5
I9
I00
Ntp62
(dp63
tp64
Rp65
(lp66
g21
(S'0'
p67
tp68
Rp69
ag21
(g67
tp70
Rp71
ag21
(g67
tp72
Rp73
ag21
(g67
tp74
Rp75
ag21
(g67
tp76
Rp77
ag21
(g67
tp78
Rp79
ag21
(g67
tp80
Rp81
ag21
(g67
tp82
Rp83
ag21
(g67
tp84
Rp85
aI9
I01
tp86
Rp87
ag55
(g65
(lp88
g21
(g67
tp89
Rp90
ag21
(g67
tp91
Rp92
ag21
(g67
tp93
Rp94
ag21
(g67
tp95
Rp96
ag21
(g67
tp97
Rp98
ag21
(g67
tp99
Rp100
ag21
(g67
tp101
Rp102
ag21
(g67
tp103
Rp104
ag21
(g67
tp105
Rp106
aI9
I01
tp107
Rp108
ag55
(g65
(lp109
g21
(g67
tp110
Rp111
ag21
(g67
tp112
Rp113
ag21
(g67
tp114
Rp115
ag21
(g67
tp116
Rp117
ag21
(g67
tp118
Rp119
ag21
(g67
tp120
Rp121
ag21
(g67
tp122
Rp123
ag21
(g67
tp124
Rp125
ag21
(g67
tp126
Rp127
aI9
I01
tp128
Rp129
ag55
(g65
(lp130
g21
(g67
tp131
Rp132
ag21
(g67
tp133
Rp134
ag21
(g67
tp135
Rp136
ag21
(g67
tp137
Rp138
ag21
(g67
tp139
Rp140
ag21
(g67
tp141
Rp142
ag21
(g67
tp143
Rp144
ag21
(g67
tp145
Rp146
ag21
(g67
tp147
Rp148
aI9
I01
tp149
Rp150
ag55
(g65
(lp151
g21
(g67
tp152
Rp153
ag21
(g67
tp154
Rp155
ag21
(g67
tp156
Rp157
ag21
(g67
tp158
Rp159
ag21
(g67
tp160
Rp161
ag21
(g67
tp162
Rp163
ag21
(g67
tp164
Rp165
ag21
(g67
tp166
Rp167
ag21
(g67
tp168
Rp169
aI9
I01
tp170
Rp171
ag55
(g65
(lp172
g21
(g67
tp173
Rp174
ag21
(g67
tp175
Rp176
ag21
(g67
tp177
Rp178
ag21
(g67
tp179
Rp180
ag21
(g67
tp181
Rp182
ag21
(g67
tp183
Rp184
ag21
(g67
tp185
Rp186
ag21
(g67
tp187
Rp188
ag21
(g67
tp189
Rp190
aI9
I01
tp191
Rp192
ag55
(g65
(lp193
g21
(g67
tp194
Rp195
ag21
(g67
tp196
Rp197
ag21
(g67
tp198
Rp199
ag21
(g67
tp200
Rp201
ag21
(g67
tp202
Rp203
ag21
(g67
tp204
Rp205
ag21
(g67
tp206
Rp207
ag21
(g67
tp208
Rp209
ag21
(g67
tp210
Rp211
aI9
I01
tp212
Rp213
ag55
(g65
(lp214
g21
(g67
tp215
Rp216
ag21
(g67
tp217
Rp218
ag21
(g67
tp219
Rp220
ag21
(g67
tp221
Rp222
ag21
(g67
tp223
Rp224
ag21
(g67
tp225
Rp226
ag21
(g67
tp227
Rp228
ag21
(g67
tp229
Rp230
ag21
(g67
tp231
Rp232
aI9
I01
tp233
Rp234
ag55
(g65
(lp235
g21
(g67
tp236
Rp237
ag21
(g67
tp238
Rp239
ag21
(g67
tp240
Rp241
ag21
(g67
tp242
Rp243
ag21
(g67
tp244
Rp245
ag21
(g67
tp246
Rp247
ag21
(g67
tp248
Rp249
ag21
(g67
tp250
Rp251
ag21
(g67
tp252
Rp253
aI9
I01
tp254
Rp255
ag55
(g65
(lp256
g21
(g67
tp257
Rp258
ag21
(g67
tp259
Rp260
ag21
(g67
tp261
Rp262
ag21
(g67
tp263
Rp264
ag21
(g67
tp265
Rp266
ag21
(g67
tp267
Rp268
ag21
(g67
tp269
Rp270
ag21
(g67
tp271
Rp272
ag21
(g67
tp273
Rp274
aI9
I01
tp275
Rp276
ag55
(g65
(lp277
g21
(g67
tp278
Rp279
ag21
(g67
tp280
Rp281
ag21
(g67
tp282
Rp283
ag21
(g67
tp284
Rp285
ag21
(g67
tp286
Rp287
ag21
(g67
tp288
Rp289
ag21
(g67
tp290
Rp291
ag21
(g67
tp292
Rp293
ag21
(g67
tp294
Rp295
aI9
I01
tp296
Rp297
ag55
(g65
(lp298
g21
(g67
tp299
Rp300
ag21
(g67
tp301
Rp302
ag21
(g67
tp303
Rp304
ag21
(g67
tp305
Rp306
ag21
(g67
tp307
Rp308
ag21
(g67
tp309
Rp310
ag21
(g67
tp311
Rp312
ag21
(g67
tp313
Rp314
ag21
(g67
tp315
Rp316
aI9
I01
tp317
Rp318
ag55
(g65
(lp319
g21
(g67
tp320
Rp321
ag21
(g67
tp322
Rp323
ag21
(g67
tp324
Rp325
ag21
(g67
tp326
Rp327
ag21
(g67
tp328
Rp329
ag21
(g67
tp330
Rp331
ag21
(g67
tp332
Rp333
ag21
(g67
tp334
Rp335
ag21
(g67
tp336
Rp337
aI9
I01
tp338
Rp339
ag55
(g65
(lp340
g21
(g67
tp341
Rp342
ag21
(g67
tp343
Rp344
ag21
(g67
tp345
Rp346
ag21
(g67
tp347
Rp348
ag21
(g67
tp349
Rp350
ag21
(g67
tp351
Rp352
ag21
(g67
tp353
Rp354
ag21
(g67
tp355
Rp356
ag21
(g67
tp357
Rp358
aI9
I01
tp359
Rp360
ag55
(g65
(lp361
g21
(g67
tp362
Rp363
ag21
(g67
tp364
Rp365
ag21
(g67
tp366
Rp367
ag21
(g67
tp368
Rp369
ag21
(g67
tp370
Rp371
ag21
(g67
tp372
Rp373
ag21
(g67
tp374
Rp375
ag21
(g67
tp376
Rp377
ag21
(g67
tp378
Rp379
aI9
I01
tp380
Rp381
a(lp382
g55
(g65
(lp383
g21
(S'403'
p384
tp385
Rp386
ag21
(S'83b'
p387
tp388
Rp389
ag21
(S'll'
p390
tp391
Rp392
ag21
(S'1bb'
p393
tp394
Rp395
ag21
(S'403'
p396
tp397
Rp398
ag21
(S'83b'
p399
tp400
Rp401
ag21
(S'll'
p402
tp403
Rp404
ag21
(S'1bb'
p405
tp406
Rp407
ag21
(S'206'
p408
tp409
Rp410
aI9
I01
tp411
Rp412
ag55
(g65
(lp413
g21
(S'403'
p414
tp415
Rp416
ag21
(S'83b'
p417
tp418
Rp419
ag21
(S'll'
p420
tp421
Rp422
ag21
(S'1bb'
p423
tp424
Rp425
ag21
(S'403'
p426
tp427
Rp428
ag21
(S'83b'
p429
tp430
Rp431
ag21
(S'll'
p432
tp433
Rp434
ag21
(S'1bb'
p435
tp436
Rp437
ag21
(S'2hd'
p438
tp439
Rp440
aI9
I01
tp441
Rp442
ag55
(g65
(lp443
g21
(S'403'
p444
tp445
Rp446
ag21
(S'83b'
p447
tp448
Rp449
ag21
(S'll'
p450
tp451
Rp452
ag21
(S'1bb'
p453
tp454
Rp455
ag21
(S'403'
p456
tp457
Rp458
ag21
(S'83b'
p459
tp460
Rp461
ag21
(S'll'
p462
tp463
Rp464
ag21
(S'1bb'
p465
tp466
Rp467
ag21
(S'2q6'
p468
tp469
Rp470
aI9
I01
tp471
Rp472
ag55
(g65
(lp473
g21
(S'403'
p474
tp475
Rp476
ag21
(S'83b'
p477
tp478
Rp479
ag21
(S'll'
p480
tp481
Rp482
ag21
(S'1bb'
p483
tp484
Rp485
ag21
(S'403'
p486
tp487
Rp488
ag21
(S'83b'
p489
tp490
Rp491
ag21
(S'll'
p492
tp493
Rp494
ag21
(S'1bb'
p495
tp496
Rp497
ag21
(S'35m'
p498
tp499
Rp500
aI9
I01
tp501
Rp502
ag55
(g65
(lp503
g21
(S'403'
p504
tp505
Rp506
ag21
(S'83b'
p507
tp508
Rp509
ag21
(S'll'
p510
tp511
Rp512
ag21
(S'1bb'
p513
tp514
Rp515
ag21
(S'403'
p516
tp517
Rp518
ag21
(S'83b'
p519
tp520
Rp521
ag21
(S'll'
p522
tp523
Rp524
ag21
(S'1bb'
p525
tp526
Rp527
ag21
(S'451'
p528
tp529
Rp530
aI9
I01
tp531
Rp532
ag55
(g65
(lp533
g21
(S'403'
p534
tp535
Rp536
ag21
(S'83b'
p537
tp538
Rp539
ag21
(S'll'
p540
tp541
Rp542
ag21
(S'1bb'
p543
tp544
Rp545
ag21
(S'403'
p546
tp547
Rp548
ag21
(S'83b'
p549
tp550
Rp551
ag21
(S'll'
p552
tp553
Rp554
ag21
(S'1bb'
p555
tp556
Rp557
ag21
(S'483'
p558
tp559
Rp560
aI9
I01
tp561
Rp562
ag55
(g65
(lp563
g21
(S'403'
p564
tp565
Rp566
ag21
(S'83b'
p567
tp568
Rp569
ag21
(S'll'
p570
tp571
Rp572
ag21
(S'1bb'
p573
tp574
Rp575
ag21
(S'403'
p576
tp577
Rp578
ag21
(S'83b'
p579
tp580
Rp581
ag21
(S'll'
p582
tp583
Rp584
ag21
(S'1bb'
p585
tp586
Rp587
ag21
(S'6a3'
p588
tp589
Rp590
aI9
I01
tp591
Rp592
ag55
(g65
(lp593
g21
(S'403'
p594
tp595
Rp596
ag21
(S'83b'
p597
tp598
Rp599
ag21
(S'll'
p600
tp601
Rp602
ag21
(S'1bb'
p603
tp604
Rp605
ag21
(S'403'
p606
tp607
Rp608
ag21
(S'83b'
p609
tp610
Rp611
ag21
(S'll'
p612
tp613
Rp614
ag21
(S'1bb'
p615
tp616
Rp617
ag21
(S'6di'
p618
tp619
Rp620
aI9
I01
tp621
Rp622
ag55
(g65
(lp623
g21
(S'403'
p624
tp625
Rp626
ag21
(S'83b'
p627
tp628
Rp629
ag21
(S'll'
p630
tp631
Rp632
ag21
(S'1bb'
p633
tp634
Rp635
ag21
(S'403'
p636
tp637
Rp638
ag21
(S'83b'
p639
tp640
Rp641
ag21
(S'll'
p642
tp643
Rp644
ag21
(S'1bb'
p645
tp646
Rp647
ag21
(S'6ia'
p648
tp649
Rp650
aI9
I01
tp651
Rp652
ag55
(g65
(lp653
g21
(S'403'
p654
tp655
Rp656
ag21
(S'83b'
p657
tp658
Rp659
ag21
(S'll'
p660
tp661
Rp662
ag21
(S'1bb'
p663
tp664
Rp665
ag21
(S'403'
p666
tp667
Rp668
ag21
(S'83b'
p669
tp670
Rp671
ag21
(S'll'
p672
tp673
Rp674
ag21
(S'1bb'
p675
tp676
Rp677
ag21
(S'6ma'
p678
tp679
Rp680
aI9
I01
tp681
Rp682
ag55
(g65
(lp683
g21
(S'403'
p684
tp685
Rp686
ag21
(S'83b'
p687
tp688
Rp689
ag21
(S'll'
p690
tp691
Rp692
ag21
(S'1bb'
p693
tp694
Rp695
ag21
(S'403'
p696
tp697
Rp698
ag21
(S'83b'
p699
tp700
Rp701
ag21
(S'll'
p702
tp703
Rp704
ag21
(S'1bb'
p705
tp706
Rp707
ag21
(S'6qr'
p708
tp709
Rp710
aI9
I01
tp711
Rp712
ag55
(g65
(lp713
g21
(S'403'
p714
tp715
Rp716
ag21
(S'83b'
p717
tp718
Rp719
ag21
(S'll'
p720
tp721
Rp722
ag21
(S'1bb'
p723
tp724
Rp725
ag21
(S'403'
p726
tp727
Rp728
ag21
(S'83b'
p729
tp730
Rp731
ag21
(S'll'
p732
tp733
Rp734
ag21
(S'1bb'
p735
tp736
Rp737
ag21
(S'740'
p738
tp739
Rp740
aI9
I01
tp741
Rp742
ag55
(g65
(lp743
g21
(S'403'
p744
tp745
Rp746
ag21
(S'83b'
p747
tp748
Rp749
ag21
(S'll'
p750
tp751
Rp752
ag21
(S'1bb'
p753
tp754
Rp755
ag21
(S'403'
p756
tp757
Rp758
ag21
(S'83b'
p759
tp760
Rp761
ag21
(S'll'
p762
tp763
Rp764
ag21
(S'1bb'
p765
tp766
Rp767
ag21
(S'7gp'
p768
tp769
Rp770
aI9
I01
tp771
Rp772
ag55
(g65
(lp773
g21
(S'403'
p774
tp775
Rp776
ag21
(S'83b'
p777
tp778
Rp779
ag21
(S'll'
p780
tp781
Rp782
ag21
(S'1bb'
p783
tp784
Rp785
ag21
(S'403'
p786
tp787
Rp788
ag21
(S'83b'
p789
tp790
Rp791
ag21
(S'll'
p792
tp793
Rp794
ag21
(S'1bb'
p795
tp796
Rp797
ag21
(S'7kq'
p798
tp799
Rp800
aI9
I01
tp801
Rp802
ag55
(g65
(lp803
g21
(S'403'
p804
tp805
Rp806
ag21
(S'83b'
p807
tp808
Rp809
ag21
(S'll'
p810
tp811
Rp812
ag21
(S'1bb'
p813
tp814
Rp815
ag21
(S'403'
p816
tp817
Rp818
ag21
(S'83b'
p819
tp820
Rp821
ag21
(S'll'
p822
tp823
Rp824
ag21
(S'1bb'
p825
tp826
Rp827
ag21
(S'7pl'
p828
tp829
Rp830
aI9
I01
tp831
Rp832
a(lp833
g55
(g65
(lp834
g21
(g67
tp835
Rp836
ag21
(g67
tp837
Rp838
ag21
(g67
tp839
Rp840
ag21
(g67
tp841
Rp842
ag21
(S'2'
p843
tp844
Rp845
ag21
(S'3'
p846
tp847
Rp848
ag21
(S't'
p849
tp850
Rp851
ag21
(S'7'
p852
tp853
Rp854
ag21
(g67
tp855
Rp856
aI9
I01
tp857
Rp858
ag55
(g65
(lp859
g21
(g67
tp860
Rp861
ag21
(g67
tp862
Rp863
ag21
(g67
tp864
Rp865
ag21
(g67
tp866
Rp867
ag21
(g843
tp868
Rp869
ag21
(g846
tp870
Rp871
ag21
(g849
tp872
Rp873
ag21
(g852
tp874
Rp875
ag21
(g67
tp876
Rp877
aI9
I01
tp878
Rp879
ag55
(g65
(lp880
g21
(g67
tp881
Rp882
ag21
(g67
tp883
Rp884
ag21
(g67
tp885
Rp886
ag21
(g67
tp887
Rp888
ag21
(g843
tp889
Rp890
ag21
(g846
tp891
Rp892
ag21
(g849
tp893
Rp894
ag21
(g852
tp895
Rp896
ag21
(g67
tp897
Rp898
aI9
I01
tp899
Rp900
ag55
(g65
(lp901
g21
(g67
tp902
Rp903
ag21
(g67
tp904
Rp905
ag21
(g67
tp906
Rp907
ag21
(g67
tp908
Rp909
ag21
(g843
tp910
Rp911
ag21
(g846
tp912
Rp913
ag21
(g849
tp914
Rp915
ag21
(g852
tp916
Rp917
ag21
(g67
tp918
Rp919
aI9
I01
tp920
Rp921
ag55
(g65
(lp922
g21
(g67
tp923
Rp924
ag21
(g67
tp925
Rp926
ag21
(g67
tp927
Rp928
ag21
(g67
tp929
Rp930
ag21
(g843
tp931
Rp932
ag21
(g846
tp933
Rp934
ag21
(g849
tp935
Rp936
ag21
(g852
tp937
Rp938
ag21
(g67
tp939
Rp940
aI9
I01
tp941
Rp942
ag55
(g65
(lp943
g21
(g67
tp944
Rp945
ag21
(g67
tp946
Rp947
ag21
(g67
tp948
Rp949
ag21
(g67
tp950
Rp951
ag21
(g843
tp952
Rp953
ag21
(g846
tp954
Rp955
ag21
(g849
tp956
Rp957
ag21
(g852
tp958
Rp959
ag21
(g67
tp960
Rp961
aI9
I01
tp962
Rp963
ag55
(g65
(lp964
g21
(g67
tp965
Rp966
ag21
(g67
tp967
Rp968
ag21
(g67
tp969
Rp970
ag21
(g67
tp971
Rp972
ag21
(g843
tp973
Rp974
ag21
(g846
tp975
Rp976
ag21
(g849
tp977
Rp978
ag21
(g852
tp979
Rp980
ag21
(g67
tp981
Rp982
aI9
I01
tp983
Rp984
ag55
(g65
(lp985
g21
(g67
tp986
Rp987
ag21
(g67
tp988
Rp989
ag21
(g67
tp990
Rp991
ag21
(g67
tp992
Rp993
ag21
(g843
tp994
Rp995
ag21
(g846
tp996
Rp997
ag21
(g849
tp998
Rp999
ag21
(g852
tp1000
Rp1001
ag21
(g67
tp1002
Rp1003
aI9
I01
tp1004
Rp1005
ag55
(g65
(lp1006
g21
(g67
tp1007
Rp1008
ag21
(g67
tp1009
Rp1010
ag21
(g67
tp1011
Rp1012
ag21
(g67
tp1013
Rp1014
ag21
(g843
tp1015
Rp1016
ag21
(g846
tp1017
Rp1018
ag21
(g849
tp1019
Rp1020
ag21
(g852
tp1021
Rp1022
ag21
(g67
tp1023
Rp1024
aI9
I01
tp1025
Rp1026
ag55
(g65
(lp1027
g21
(g67
tp1028
Rp1029
ag21
(g67
tp1030
Rp1031
ag21
(g67
tp1032
Rp1033
ag21
(g67
tp1034
Rp1035
ag21
(g843
tp1036
Rp1037
ag21
(g846
tp1038
Rp1039
ag21
(g849
tp1040
Rp1041
ag21
(g852
tp1042
Rp1043
ag21
(g67
tp1044
Rp1045
aI9
I01
tp1046
Rp1047
ag55
(g65
(lp1048
g21
(g67
tp1049
Rp1050
ag21
(g67
tp1051
Rp1052
ag21
(g67
tp1053
Rp1054
ag21
(g67
tp1055
Rp1056
ag21
(g843
tp1057
Rp1058
ag21
(g846
tp1059
Rp1060
ag21
(g849
tp1061
Rp1062
ag21
(g852
tp1063
Rp1064
ag21
(g67
tp1065
Rp1066
aI9
I01
tp1067
Rp1068
ag55
(g65
(lp1069
g21
(g67
tp1070
Rp1071
ag21
(g67
tp1072
Rp1073
ag21
(g67
tp1074
Rp1075
ag21
(g67
tp1076
Rp1077
ag21
(g843
tp1078
Rp1079
ag21
(g846
tp1080
Rp1081
ag21
(g849
tp1082
Rp1083
ag21
(g852
tp1084
Rp1085
ag21
(g67
tp1086
Rp1087
aI9
I01
tp1088
Rp1089
ag55
(g65
(lp1090
g21
(g67
tp1091
Rp1092
ag21
(g67
tp1093
Rp1094
ag21
(g67
tp1095
Rp1096
ag21
(g67
tp1097
Rp1098
ag21
(g843
tp1099
Rp1100
ag21
(g846
tp1101
Rp1102
ag21
(g849
tp1103
Rp1104
ag21
(g852
tp1105
Rp1106
ag21
(g67
tp1107
Rp1108
aI9
I01
tp1109
Rp1110
ag55
(g65
(lp1111
g21
(g67
tp1112
Rp1113
ag21
(g67
tp1114
Rp1115
ag21
(g67
tp1116
Rp1117
ag21
(g67
tp1118
Rp1119
ag21
(g843
tp1120
Rp1121
ag21
(g846
tp1122
Rp1123
ag21
(g849
tp1124
Rp1125
ag21
(g852
tp1126
Rp1127
ag21
(g67
tp1128
Rp1129
aI9
I01
tp1130
Rp1131
ag55
(g65
(lp1132
g21
(g67
tp1133
Rp1134
ag21
(g67
tp1135
Rp1136
ag21
(g67
tp1137
Rp1138
ag21
(g67
tp1139
Rp1140
ag21
(g843
tp1141
Rp1142
ag21
(g846
tp1143
Rp1144
ag21
(g849
tp1145
Rp1146
ag21
(g852
tp1147
Rp1148
ag21
(g67
tp1149
Rp1150
aI9
I01
tp1151
Rp1152
a(lp1153
g55
(g65
(lp1154
g21
(g67
tp1155
Rp1156
ag21
(g67
tp1157
Rp1158
ag21
(g67
tp1159
Rp1160
ag21
(g67
tp1161
Rp1162
ag21
(S'403'
p1163
tp1164
Rp1165
ag21
(S'83b'
p1166
tp1167
Rp1168
ag21
(S'll'
p1169
tp1170
Rp1171
ag21
(S'1bb'
p1172
tp1173
Rp1174
ag21
(S'206'
p1175
tp1176
Rp1177
aI9
I01
tp1178
Rp1179
ag55
(g65
(lp1180
g21
(g67
tp1181
Rp1182
ag21
(g67
tp1183
Rp1184
ag21
(g67
tp1185
Rp1186
ag21
(g67
tp1187
Rp1188
ag21
(g67
tp1189
Rp1190
ag21
(g67
tp1191
Rp1192
ag21
(g67
tp1193
Rp1194
ag21
(g67
tp1195
Rp1196
ag21
(S'2hd'
p1197
tp1198
Rp1199
aI9
I01
tp1200
Rp1201
ag55
(g65
(lp1202
g21
(g67
tp1203
Rp1204
ag21
(g67
tp1205
Rp1206
ag21
(g67
tp1207
Rp1208
ag21
(g67
tp1209
Rp1210
ag21
(g67
tp1211
Rp1212
ag21
(g67
tp1213
Rp1214
ag21
(g67
tp1215
Rp1216
ag21
(g67
tp1217
Rp1218
ag21
(S'2q6'
p1219
tp1220
Rp1221
aI9
I01
tp1222
Rp1223
ag55
(g65
(lp1224
g21
(g67
tp1225
Rp1226
ag21
(g67
tp1227
Rp1228
ag21
(g67
tp1229
Rp1230
ag21
(g67
tp1231
Rp1232
ag21
(g67
tp1233
Rp1234
ag21
(g67
tp1235
Rp1236
ag21
(g67
tp1237
Rp1238
ag21
(g67
tp1239
Rp1240
ag21
(S'35m'
p1241
tp1242
Rp1243
aI9
I01
tp1244
Rp1245
ag55
(g65
(lp1246
g21
(g67
tp1247
Rp1248
ag21
(g67
tp1249
Rp1250
ag21
(g67
tp1251
Rp1252
ag21
(g67
tp1253
Rp1254
ag21
(g67
tp1255
Rp1256
ag21
(g67
tp1257
Rp1258
ag21
(g67
tp1259
Rp1260
ag21
(g67
tp1261
Rp1262
ag21
(S'451'
p1263
tp1264
Rp1265
aI9
I01
tp1266
Rp1267
ag55
(g65
(lp1268
g21
(g67
tp1269
Rp1270
ag21
(g67
tp1271
Rp1272
ag21
(g67
tp1273
Rp1274
ag21
(g67
tp1275
Rp1276
ag21
(g67
tp1277
Rp1278
ag21
(g67
tp1279
Rp1280
ag21
(g67
tp1281
Rp1282
ag21
(g67
tp1283
Rp1284
ag21
(S'483'
p1285
tp1286
Rp1287
aI9
I01
tp1288
Rp1289
ag55
(g65
(lp1290
g21
(g67
tp1291
Rp1292
ag21
(g67
tp1293
Rp1294
ag21
(g67
tp1295
Rp1296
ag21
(g67
tp1297
Rp1298
ag21
(g67
tp1299
Rp1300
ag21
(g67
tp1301
Rp1302
ag21
(g67
tp1303
Rp1304
ag21
(g67
tp1305
Rp1306
ag21
(S'6a3'
p1307
tp1308
Rp1309
aI9
I01
tp1310
Rp1311
ag55
(g65
(lp1312
g21
(g67
tp1313
Rp1314
ag21
(g67
tp1315
Rp1316
ag21
(g67
tp1317
Rp1318
ag21
(g67
tp1319
Rp1320
ag21
(g67
tp1321
Rp1322
ag21
(g67
tp1323
Rp1324
ag21
(g67
tp1325
Rp1326
ag21
(g67
tp1327
Rp1328
ag21
(S'6di'
p1329
tp1330
Rp1331
aI9
I01
tp1332
Rp1333
ag55
(g65
(lp1334
g21
(g67
tp1335
Rp1336
ag21
(g67
tp1337
Rp1338
ag21
(g67
tp1339
Rp1340
ag21
(g67
tp1341
Rp1342
ag21
(g67
tp1343
Rp1344
ag21
(g67
tp1345
Rp1346
ag21
(g67
tp1347
Rp1348
ag21
(g67
tp1349
Rp1350
ag21
(S'6ia'
p1351
tp1352
Rp1353
aI9
I01
tp1354
Rp1355
ag55
(g65
(lp1356
g21
(g67
tp1357
Rp1358
ag21
(g67
tp1359
Rp1360
ag21
(g67
tp1361
Rp1362
ag21
(g67
tp1363
Rp1364
ag21
(g67
tp1365
Rp1366
ag21
(g67
tp1367
Rp1368
ag21
(g67
tp1369
Rp1370
ag21
(g67
tp1371
Rp1372
ag21
(S'6ma'
p1373
tp1374
Rp1375
aI9
I01
tp1376
Rp1377
ag55
(g65
(lp1378
g21
(g67
tp1379
Rp1380
ag21
(g67
tp1381
Rp1382
ag21
(g67
tp1383
Rp1384
ag21
(g67
tp1385
Rp1386
ag21
(g67
tp1387
Rp1388
ag21
(g67
tp1389
Rp1390
ag21
(g67
tp1391
Rp1392
ag21
(g67
tp1393
Rp1394
ag21
(S'6qr'
p1395
tp1396
Rp1397
aI9
I01
tp1398
Rp1399
ag55
(g65
(lp1400
g21
(g67
tp1401
Rp1402
ag21
(g67
tp1403
Rp1404
ag21
(g67
tp1405
Rp1406
ag21
(g67
tp1407
Rp1408
ag21
(g67
tp1409
Rp1410
ag21
(g67
tp1411
Rp1412
ag21
(g67
tp1413
Rp1414
ag21
(g67
tp1415
Rp1416
ag21
(S'740'
p1417
tp1418
Rp1419
aI9
I01
tp1420
Rp1421
ag55
(g65
(lp1422
g21
(g67
tp1423
Rp1424
ag21
(g67
tp1425
Rp1426
ag21
(g67
tp1427
Rp1428
ag21
(g67
tp1429
Rp1430
ag21
(g67
tp1431
Rp1432
ag21
(g67
tp1433
Rp1434
ag21
(g67
tp1435
Rp1436
ag21
(g67
tp1437
Rp1438
ag21
(S'7gp'
p1439
tp1440
Rp1441
aI9
I01
tp1442
Rp1443
ag55
(g65
(lp1444
g21
(g67
tp1445
Rp1446
ag21
(g67
tp1447
Rp1448
ag21
(g67
tp1449
Rp1450
ag21
(g67
tp1451
Rp1452
ag21
(g67
tp1453
Rp1454
ag21
(g67
tp1455
Rp1456
ag21
(g67
tp1457
Rp1458
ag21
(g67
tp1459
Rp1460
ag21
(S'7kq'
p1461
tp1462
Rp1463
aI9
I01
tp1464
Rp1465
ag55
(g65
(lp1466
g21
(g67
tp1467
Rp1468
ag21
(g67
tp1469
Rp1470
ag21
(g67
tp1471
Rp1472
ag21
(g67
tp1473
Rp1474
ag21
(g67
tp1475
Rp1476
ag21
(g67
tp1477
Rp1478
ag21
(g67
tp1479
Rp1480
ag21
(g67
tp1481
Rp1482
ag21
(S'7pl'
p1483
tp1484
Rp1485
aI9
I01
tp1486
Rp1487
atp1488
.