(csage.matrix.matrix0
unpickle
p0
(csage.matrix.matrix_integer_dense
Matrix_integer_dense
p1
csage.structure.unique_representation
unreduce
p2
(csage.matrix.matrix_space
MatrixSpace
p3
(csage.rings.integer_ring
IntegerRing
p4
(tRp5
I1
I7
I00
S'flint'
p6
tp7
(dp8
tp9
Rp10
I00
NS'1 2 3 0 0 0 1'
p11
I0
tp12
Rp13
g0
(g1
g2
(g3
(g5
I3
I7
I00
g6
tp14
(dp15
tp16
Rp17
I00
NS'1 0 0 1 0 0 0 0 1 0 0 1 0 0 0 0 1 0 0 1 0'
p18
I0
tp19
Rp20
csage.rings.integer
make_integer
p21
(S'5'
p22
tp23
Rp24
(lp25
(g21
(S'b'
p26
tp27
Rp28
g21
(S'k'
p29
tp30
Rp31
g21
(S'6'
p32
tp33
Rp34
tp35
a(I11
tp36
a(I17
tp37
a(I12
tp38
a(I18
tp39
a(I15
tp40
a(lp41
csage.modules.vector_integer_dense
unpickle_v1
p42
(csage.structure.factory
generic_factory_unpickle
p43
(csage.structure.factory
lookup_global
p44
(S'FreeModule'
p45
tp46
Rp47
(I7
I6
tp48
(g5
I7
I00
Ntp49
(dp50
tp51
Rp52
(lp53
g21
(S'0'
p54
tp55
Rp56
ag21
(g54
tp57
Rp58
ag21
(g54
tp59
Rp60
ag21
(g54
tp61
Rp62
ag21
(g54
tp63
Rp64
ag21
(g54
tp65
Rp66
ag21
(g54
tp67
Rp68
aI7
I01
tp69
Rp70
ag42
(g52
(lp71
g21
(g54
tp72
Rp73
ag21
(g54
tp74
Rp75
ag21
(g54
tp76
Rp77
ag21
(g54
tp78
Rp79
ag21
(g54
tp80
Rp81
ag21
(g54
tp82
Rp83
ag21
(g54
tp84
Rp85
aI7
I01
tp86
Rp87
ag42
(g52
(lp88
g21
(g54
tp89
Rp90
ag21
(g54
tp91
Rp92
ag21
(g54
tp93
Rp94
ag21
(g54
tp95
Rp96
ag21
(g54
tp97
Rp98
ag21
(g54
tp99
Rp100
ag21
(g54
tp101
Rp102
aI7
I01
tp103
Rp104
ag42
(g52
(lp105
g21
(g54
tp106
Rp107
ag21
(g54
tp108
Rp109
ag21
(g54
tp110
Rp111
ag21
(g54
tp112
Rp113
ag21
(g54
tp114
Rp115
ag21
(g54
tp116
Rp117
ag21
(g54
tp118
Rp119
aI7
I01
tp120
Rp121
ag42
(g52
(lp122
g21
(g54
tp123
Rp124
ag21
(g54
tp125
Rp126
ag21
(g54
tp127
Rp128
ag21
(g54
tp129
Rp130
ag21
(g54
tp131
Rp132
ag21
(g54
tp133
Rp134
ag21
(g54
tp135
Rp136
aI7
I01
tp137
Rp138
a(lp139
g42
(g52
(lp140
g21
(g26
tp141
Rp142
ag21
(g29
tp143
Rp144
ag21
(g32
tp145
Rp146
ag21
(g26
tp147
Rp148
ag21
(g29
tp149
Rp150
ag21
(g32
tp151
Rp152
ag21
(g26
tp153
Rp154
aI7
I01
tp155
Rp156
ag42
(g52
(lp157
g21
(g26
tp158
Rp159
ag21
(g29
tp160
Rp161
ag21
(g32
tp162
Rp163
ag21
(g26
tp164
Rp165
ag21
(g29
tp166
Rp167
ag21
(g32
tp168
Rp169
ag21
(S'h'
p170
tp171
Rp172
aI7
I01
tp173
Rp174
ag42
(g52
(lp175
g21
(g26
tp176
Rp177
ag21
(g29
tp178
Rp179
ag21
(g32
tp180
Rp181
ag21
(g26
tp182
Rp183
ag21
(g29
tp184
Rp185
ag21
(g32
tp186
Rp187
ag21
(S'c'
p188
tp189
Rp190
aI7
I01
tp191
Rp192
ag42
(g52
(lp193
g21
(g26
tp194
Rp195
ag21
(g29
tp196
Rp197
ag21
(g32
tp198
Rp199
ag21
(g26
tp200
Rp201
ag21
(g29
tp202
Rp203
ag21
(g32
tp204
Rp205
ag21
(S'i'
p206
tp207
Rp208
aI7
I01
tp209
Rp210
ag42
(g52
(lp211
g21
(g26
tp212
Rp213
ag21
(g29
tp214
Rp215
ag21
(g32
tp216
Rp217
ag21
(g26
tp218
Rp219
ag21
(g29
tp220
Rp221
ag21
(g32
tp222
Rp223
ag21
(S'f'
p224
tp225
Rp226
aI7
I01
tp227
Rp228
a(lp229
g42
(g52
(lp230
g21
(g54
tp231
Rp232
ag21
(g54
tp233
Rp234
ag21
(g54
tp235
Rp236
ag21
(S'1'
p237
tp238
Rp239
ag21
(S'2'
p240
tp241
Rp242
ag21
(S'3'
p243
tp244
Rp245
ag21
(g54
tp246
Rp247
aI7
I01
tp248
Rp249
ag42
(g52
(lp250
g21
(g54
tp251
Rp252
ag21
(g54
tp253
Rp254
ag21
(g54
tp255
Rp256
ag21
(g237
tp257
Rp258
ag21
(g240
tp259
Rp260
ag21
(g243
tp261
Rp262
ag21
(g54
tp263
Rp264
aI7
I01
tp265
Rp266
ag42
(g52
(lp267
g21
(g54
tp268
Rp269
ag21
(g54
tp270
Rp271
ag21
(g54
tp272
Rp273
ag21
(g237
tp274
Rp275
ag21
(g240
tp276
Rp277
ag21
(g243
tp278
Rp279
ag21
(g54
tp280
Rp281
aI7
I01
tp282
Rp283
ag42
(g52
(lp284
g21
(g54
tp285
Rp286
ag21
(g54
tp287
Rp288
ag21
(g54
tp289
Rp290
ag21
(g237
tp291
Rp292
ag21
(g240
tp293
Rp294
ag21
(g243
tp295
Rp296
ag21
(g54
tp297
Rp298
aI7
I01
tp299
Rp300
ag42
(g52
(lp301
g21
(g54
tp302
Rp303
ag21
(g54
tp304
Rp305
ag21
(g54
tp306
Rp307
ag21
(g237
tp308
Rp309
ag21
(g240
tp310
Rp311
ag21
(g243
tp312
Rp313
ag21
(g54
tp314
Rp315
aI7
I01
tp316
Rp317
a(lp318
g42
(g52
(lp319
g21
(g54
tp320
Rp321
ag21
(g54
tp322
Rp323
ag21
(g54
tp324
Rp325
ag21
(g26
tp326
Rp327
ag21
(g29
tp328
Rp329
ag21
(g32
tp330
Rp331
ag21
(g26
tp332
Rp333
aI7
I01
tp334
Rp335
ag42
(g52
(lp336
g21
(g54
tp337
Rp338
ag21
(g54
tp339
Rp340
ag21
(g54
tp341
Rp342
ag21
(g54
tp343
Rp344
ag21
(g54
tp345
Rp346
ag21
(g54
tp347
Rp348
ag21
(g170
tp349
Rp350
aI7
I01
tp351
Rp352
ag42
(g52
(lp353
g21
(g54
tp354
Rp355
ag21
(g54
tp356
Rp357
ag21
(g54
tp358
Rp359
ag21
(g54
tp360
Rp361
ag21
(g54
tp362
Rp363
ag21
(g54
tp364
Rp365
ag21
(g188
tp366
Rp367
aI7
I01
tp368
Rp369
ag42
(g52
(lp370
g21
(g54
tp371
Rp372
ag21
(g54
tp373
Rp374
ag21
(g54
tp375
Rp376
ag21
(g54
tp377
Rp378
ag21
(g54
tp379
Rp380
ag21
(g54
tp381
Rp382
ag21
(g206
tp383
Rp384
aI7
I01
tp385
Rp386
ag42
(g52
(lp387
g21
(g54
tp388
Rp389
ag21
(g54
tp390
Rp391
ag21
(g54
tp392
Rp393
ag21
(g54
tp394
Rp395
ag21
(g54
tp396
Rp397
ag21
(g54
tp398
Rp399
ag21
(g224
tp400
Rp401
aI7
I01
tp402
Rp403
atp404
.