(csage.matrix.matrix0
unpickle
p0
(csage.matrix.matrix_integer_dense
Matrix_integer_dense
p1
csage.structure.unique_representation
unreduce
p2
(csage.matrix.matrix_space
MatrixSpace
p3
(csage.rings.integer_ring
IntegerRing
p4
(tRp5
I1
I9
I00
S'flint'
p6
tp7
(dp8
tp9
Rp10
I00
NS'2 3 7 d 0 0 0 0 1'
p11
I0
tp12
Rp13
g0
(g1
g2
(g3
(g5
I4
I9
I00
g6
tp14
(dp15
tp16
Rp17
I00
NS'1 0 0 0 1 0 0 0 0 0 1 0 0 0 1 0 0 0 0 0 1 0 0 0 1 0 0 0 0 0 1 0 0 0 1 0'
p18
I0
tp19
Rp20
csage.rings.integer
make_integer
p21
(S'p'
p22
tp23
Rp24
(lp25
(g21
(S'n2'
p26
tp27
Rp28
g21
(S'j5'
p29
tp30
Rp31
g21
(S'3j'
p32
tp33
Rp34
g21
(S'7r'
p35
tp36
Rp37
tp38
a(I368
tp39
a(I473
tp40
a(I209
tp41
a(I182
tp42
a(I334
tp43
a(I408
tp44
a(I308
tp45
a(I103
tp46
a(I196
tp47
a(I403
tp48
a(I175
tp49
a(I363
tp50
a(I384
tp51
a(I326
tp52
a(I236
tp53
a(I436
tp54
a(I197
tp55
a(I458
tp56
a(I126
tp57
a(I353
tp58
a(I240
tp59
a(I109
tp60
a(I102
tp61
a(I451
tp62
a(I359
tp63
a(lp64
csage.modules.vector_integer_dense
unpickle_v1
p65
(csage.structure.factory
generic_factory_unpickle
p66
(csage.structure.factory
lookup_global
p67
(S'FreeModule'
p68
tp69
Rp70
(I7
I6
tp71
(g5
I9
I00
Ntp72
(dp73
tp74
Rp75
(lp76
g21
(S'0'
p77
tp78
Rp79
ag21
(g77
tp80
Rp81
ag21
(g77
tp82
Rp83
ag21
(g77
tp84
Rp85
ag21
(g77
tp86
Rp87
ag21
(g77
tp88
Rp89
ag21
(g77
tp90
Rp91
ag21
(g77
tp92
Rp93
ag21
(g77
tp94
Rp95
aI9
I01
tp96
Rp97
ag65
(g75
(lp98
g21
(g77
tp99
Rp100
ag21
(g77
tp101
Rp102
ag21
(g77
tp103
Rp104
ag21
(g77
tp105
Rp106
ag21
(g77
tp107
Rp108
ag21
(g77
tp109
Rp110
ag21
(g77
tp111
Rp112
ag21
(g77
tp113
Rp114
ag21
(g77
tp115
Rp116
aI9
I01
tp117
Rp118
ag65
(g75
(lp119
g21
(g77
tp120
Rp121
ag21
(g77
tp122
Rp123
ag21
(g77
tp124
Rp125
ag21
(g77
tp126
Rp127
ag21
(g77
tp128
Rp129
ag21
(g77
tp130
Rp131
ag21
(g77
tp132
Rp133
ag21
(g77
tp134
Rp135
ag21
(g77
tp136
Rp137
aI9
I01
tp138
Rp139
ag65
(g75
(lp140
g21
(g77
tp141
Rp142
ag21
(g77
tp143
Rp144
ag21
(g77
tp145
Rp146
ag21
(g77
tp147
Rp148
ag21
(g77
tp149
Rp150
ag21
(g77
tp151
Rp152
ag21
(g77
tp153
Rp154
ag21
(g77
tp155
Rp156
ag21
(g77
tp157
Rp158
aI9
I01
tp159
Rp160
ag65
(g75
(lp161
g21
(g77
tp162
Rp163
ag21
(g77
tp164
Rp165
ag21
(g77
tp166
Rp167
ag21
(g77
tp168
Rp169
ag21
(g77
tp170
Rp171
ag21
(g77
tp172
Rp173
ag21
(g77
tp174
Rp175
ag21
(g77
tp176
Rp177
ag21
(g77
tp178
Rp179
aI9
I01
tp180
Rp181
ag65
(g75
(lp182
g21
(g77
tp183
Rp184
ag21
(g77
tp185
Rp186
ag21
(g77
tp187
Rp188
ag21
(g77
tp189
Rp190
ag21
(g77
tp191
Rp192
ag21
(g77
tp193
Rp194
ag21
(g77
tp195
Rp196
ag21
(g77
tp197
Rp198
ag21
(g77
tp199
Rp200
aI9
I01
tp201
Rp202
ag65
(g75
(lp203
g21
(g77
tp204
Rp205
ag21
(g77
tp206
Rp207
ag21
(g77
tp208
Rp209
ag21
(g77
tp210
Rp211
ag21
(g77
tp212
Rp213
ag21
(g77
tp214
Rp215
ag21
(g77
tp216
Rp217
ag21
(g77
tp218
Rp219
ag21
(g77
tp220
Rp221
aI9
I01
tp222
Rp223
ag65
(g75
(lp224
g21
(g77
tp225
Rp226
ag21
(g77
tp227
Rp228
ag21
(g77
tp229
Rp230
ag21
(g77
tp231
Rp232
ag21
(g77
tp233
Rp234
ag21
(g77
tp235
Rp236
ag21
(g77
tp237
Rp238
ag21
(g77
tp239
Rp240
ag21
(g77
tp241
Rp242
aI9
I01
tp243
Rp244
ag65
(g75
(lp245
g21
(g77
tp246
Rp247
ag21
(g77
tp248
Rp249
ag21
(g77
tp250
Rp251
ag21
(g77
tp252
Rp253
ag21
(g77
tp254
Rp255
ag21
(g77
tp256
Rp257
ag21
(g77
tp258
Rp259
ag21
(g77
tp260
Rp261
ag21
(g77
tp262
Rp263
aI9
I01
tp264
Rp265
ag65
(g75
(lp266
g21
(g77
tp267
Rp268
ag21
(g77
tp269
Rp270
ag21
(g77
tp271
Rp272
ag21
(g77
tp273
Rp274
ag21
(g77
tp275
Rp276
ag21
(g77
tp277
Rp278
ag21
(g77
tp279
Rp280
ag21
(g77
tp281
Rp282
ag21
(g77
tp283
Rp284
aI9
I01
tp285
Rp286
ag65
(g75
(lp287
g21
(g77
tp288
Rp289
ag21
(g77
tp290
Rp291
ag21
(g77
tp292
Rp293
ag21
(g77
tp294
Rp295
ag21
(g77
tp296
Rp297
ag21
(g77
tp298
Rp299
ag21
(g77
tp300
Rp301
ag21
(g77
tp302
Rp303
ag21
(g77
tp304
Rp305
aI9
I01
tp306
Rp307
ag65
(g75
(lp308
g21
(g77
tp309
Rp310
ag21
(g77
tp311
Rp312
ag21
(g77
tp313
Rp314
ag21
(g77
tp315
Rp316
ag21
(g77
tp317
Rp318
ag21
(g77
tp319
Rp320
ag21
(g77
tp321
Rp322
ag21
(g77
tp323
Rp324
ag21
(g77
tp325
Rp326
aI9
I01
tp327
Rp328
ag65
(g75
(lp329
g21
(g77
tp330
Rp331
ag21
(g77
tp332
Rp333
ag21
(g77
tp334
Rp335
ag21
(g77
tp336
Rp337
ag21
(g77
tp338
Rp339
ag21
(g77
tp340
Rp341
ag21
(g77
tp342
Rp343
ag21
(g77
tp344
Rp345
ag21
(g77
tp346
Rp347
aI9
I01
tp348
Rp349
ag65
(g75
(lp350
g21
(g77
tp351
Rp352
ag21
(g77
tp353
Rp354
ag21
(g77
tp355
Rp356
ag21
(g77
tp357
Rp358
ag21
(g77
tp359
Rp360
ag21
(g77
tp361
Rp362
ag21
(g77
tp363
Rp364
ag21
(g77
tp365
Rp366
ag21
(g77
tp367
Rp368
aI9
I01
tp369
Rp370
ag65
(g75
(lp371
g21
(g77
tp372
Rp373
ag21
(g77
tp374
Rp375
ag21
(g77
tp376
Rp377
ag21
(g77
tp378
Rp379
ag21
(g77
tp380
Rp381
ag21
(g77
tp382
Rp383
ag21
(g77
tp384
Rp385
ag21
(g77
tp386
Rp387
ag21
(g77
tp388
Rp389
aI9
I01
tp390
Rp391
ag65
(g75
(lp392
g21
(g77
tp393
Rp394
ag21
(g77
tp395
Rp396
ag21
(g77
tp397
Rp398
ag21
(g77
tp399
Rp400
ag21
(g77
tp401
Rp402
ag21
(g77
tp403
Rp404
ag21
(g77
tp405
Rp406
ag21
(g77
tp407
Rp408
ag21
(g77
tp409
Rp410
aI9
I01
tp411
Rp412
ag65
(g75
(lp413
g21
(g77
tp414
Rp415
ag21
(g77
tp416
Rp417
ag21
(g77
tp418
Rp419
ag21
(g77
tp420
Rp421
ag21
(g77
tp422
Rp423
ag21
(g77
tp424
Rp425
ag21
(g77
tp426
Rp427
ag21
(g77
tp428
Rp429
ag21
(g77
tp430
Rp431
aI9
I01
tp432
Rp433
ag65
(g75
(lp434
g21
(g77
tp435
Rp436
ag21
(g77
tp437
Rp438
ag21
(g77
tp439
Rp440
ag21
(g77
tp441
Rp442
ag21
(g77
tp443
Rp444
ag21
(g77
tp445
Rp446
ag21
(g77
tp447
Rp448
ag21
(g77
tp449
Rp450
ag21
(g77
tp451
Rp452
aI9
I01
tp453
Rp454
ag65
(g75
(lp455
g21
(g77
tp456
Rp457
ag21
(g77
tp458
Rp459
ag21
(g77
tp460
Rp461
ag21
(g77
tp462
Rp463
ag21
(g77
tp464
Rp465
ag21
(g77
tp466
Rp467
ag21
(g77
tp468
Rp469
ag21
(g77
tp470
Rp471
ag21
(g77
tp472
Rp473
aI9
I01
tp474
Rp475
ag65
(g75
(lp476
g21
(g77
tp477
Rp478
ag21
(g77
tp479
Rp480
ag21
(g77
tp481
Rp482
ag21
(g77
tp483
Rp484
ag21
(g77
tp485
Rp486
ag21
(g77
tp487
Rp488
ag21
(g77
tp489
Rp490
ag21
(g77
tp491
Rp492
ag21
(g77
tp493
Rp494
aI9
I01
tp495
Rp496
ag65
(g75
(lp497
g21
(g77
tp498
Rp499
ag21
(g77
tp500
Rp501
ag21
(g77
tp502
Rp503
ag21
(g77
tp504
Rp505
ag21
(g77
tp506
Rp507
ag21
(g77
tp508
Rp509
ag21
(g77
tp510
Rp511
ag21
(g77
tp512
Rp513
ag21
(g77
tp514
Rp515
aI9
I01
tp516
Rp517
ag65
(g75
(lp518
g21
(g77
tp519
Rp520
ag21
(g77
tp521
Rp522
ag21
(g77
tp523
Rp524
ag21
(g77
tp525
Rp526
ag21
(g77
tp527
Rp528
ag21
(g77
tp529
Rp530
ag21
(g77
tp531
Rp532
ag21
(g77
tp533
Rp534
ag21
(g77
tp535
Rp536
aI9
I01
tp537
Rp538
ag65
(g75
(lp539
g21
(g77
tp540
Rp541
ag21
(g77
tp542
Rp543
ag21
(g77
tp544
Rp545
ag21
(g77
tp546
Rp547
ag21
(g77
tp548
Rp549
ag21
(g77
tp550
Rp551
ag21
(g77
tp552
Rp553
ag21
(g77
tp554
Rp555
ag21
(g77
tp556
Rp557
aI9
I01
tp558
Rp559
ag65
(g75
(lp560
g21
(g77
tp561
Rp562
ag21
(g77
tp563
Rp564
ag21
(g77
tp565
Rp566
ag21
(g77
tp567
Rp568
ag21
(g77
tp569
Rp570
ag21
(g77
tp571
Rp572
ag21
(g77
tp573
Rp574
ag21
(g77
tp575
Rp576
ag21
(g77
tp577
Rp578
aI9
I01
tp579
Rp580
ag65
(g75
(lp581
g21
(g77
tp582
Rp583
ag21
(g77
tp584
Rp585
ag21
(g77
tp586
Rp587
ag21
(g77
tp588
Rp589
ag21
(g77
tp590
Rp591
ag21
(g77
tp592
Rp593
ag21
(g77
tp594
Rp595
ag21
(g77
tp596
Rp597
ag21
(g77
tp598
Rp599
aI9
I01
tp600
Rp601
a(lp602
g65
(g75
(lp603
g21
(S'n2'
p604
tp605
Rp606
ag21
(S'j5'
p607
tp608
Rp609
ag21
(S'3j'
p610
tp611
Rp612
ag21
(S'7r'
p613
tp614
Rp615
ag21
(S'n2'
p616
tp617
Rp618
ag21
(S'j5'
p619
tp620
Rp621
ag21
(S'3j'
p622
tp623
Rp624
ag21
(S'7r'
p625
tp626
Rp627
ag21
(S'bg'
p628
tp629
Rp630
aI9
I01
tp631
Rp632
ag65
(g75
(lp633
g21
(S'n2'
p634
tp635
Rp636
ag21
(S'j5'
p637
tp638
Rp639
ag21
(S'3j'
p640
tp641
Rp642
ag21
(S'7r'
p643
tp644
Rp645
ag21
(S'n2'
p646
tp647
Rp648
ag21
(S'j5'
p649
tp650
Rp651
ag21
(S'3j'
p652
tp653
Rp654
ag21
(S'7r'
p655
tp656
Rp657
ag21
(S'ep'
p658
tp659
Rp660
aI9
I01
tp661
Rp662
ag65
(g75
(lp663
g21
(S'n2'
p664
tp665
Rp666
ag21
(S'j5'
p667
tp668
Rp669
ag21
(S'3j'
p670
tp671
Rp672
ag21
(S'7r'
p673
tp674
Rp675
ag21
(S'n2'
p676
tp677
Rp678
ag21
(S'j5'
p679
tp680
Rp681
ag21
(S'3j'
p682
tp683
Rp684
ag21
(S'7r'
p685
tp686
Rp687
ag21
(S'6h'
p688
tp689
Rp690
aI9
I01
tp691
Rp692
ag65
(g75
(lp693
g21
(S'n2'
p694
tp695
Rp696
ag21
(S'j5'
p697
tp698
Rp699
ag21
(S'3j'
p700
tp701
Rp702
ag21
(S'7r'
p703
tp704
Rp705
ag21
(S'n2'
p706
tp707
Rp708
ag21
(S'j5'
p709
tp710
Rp711
ag21
(S'3j'
p712
tp713
Rp714
ag21
(S'7r'
p715
tp716
Rp717
ag21
(S'5m'
p718
tp719
Rp720
aI9
I01
tp721
Rp722
ag65
(g75
(lp723
g21
(S'n2'
p724
tp725
Rp726
ag21
(S'j5'
p727
tp728
Rp729
ag21
(S'3j'
p730
tp731
Rp732
ag21
(S'7r'
p733
tp734
Rp735
ag21
(S'n2'
p736
tp737
Rp738
ag21
(S'j5'
p739
tp740
Rp741
ag21
(S'3j'
p742
tp743
Rp744
ag21
(S'7r'
p745
tp746
Rp747
ag21
(S'ae'
p748
tp749
Rp750
aI9
I01
tp751
Rp752
ag65
(g75
(lp753
g21
(S'n2'
p754
tp755
Rp756
ag21
(S'j5'
p757
tp758
Rp759
ag21
(S'3j'
p760
tp761
Rp762
ag21
(S'7r'
p763
tp764
Rp765
ag21
(S'n2'
p766
tp767
Rp768
ag21
(S'j5'
p769
tp770
Rp771
ag21
(S'3j'
p772
tp773
Rp774
ag21
(S'7r'
p775
tp776
Rp777
ag21
(S'co'
p778
tp779
Rp780
aI9
I01
tp781
Rp782
ag65
(g75
(lp783
g21
(S'n2'
p784
tp785
Rp786
ag21
(S'j5'
p787
tp788
Rp789
ag21
(S'3j'
p790
tp791
Rp792
ag21
(S'7r'
p793
tp794
Rp795
ag21
(S'n2'
p796
tp797
Rp798
ag21
(S'j5'
p799
tp800
Rp801
ag21
(S'3j'
p802
tp803
Rp804
ag21
(S'7r'
p805
tp806
Rp807
ag21
(S'9k'
p808
tp809
Rp810
aI9
I01
tp811
Rp812
ag65
(g75
(lp813
g21
(S'n2'
p814
tp815
Rp816
ag21
(S'j5'
p817
tp818
Rp819
ag21
(S'3j'
p820
tp821
Rp822
ag21
(S'7r'
p823
tp824
Rp825
ag21
(S'n2'
p826
tp827
Rp828
ag21
(S'j5'
p829
tp830
Rp831
ag21
(S'3j'
p832
tp833
Rp834
ag21
(S'7r'
p835
tp836
Rp837
ag21
(S'37'
p838
tp839
Rp840
aI9
I01
tp841
Rp842
ag65
(g75
(lp843
g21
(S'n2'
p844
tp845
Rp846
ag21
(S'j5'
p847
tp848
Rp849
ag21
(S'3j'
p850
tp851
Rp852
ag21
(S'7r'
p853
tp854
Rp855
ag21
(S'n2'
p856
tp857
Rp858
ag21
(S'j5'
p859
tp860
Rp861
ag21
(S'3j'
p862
tp863
Rp864
ag21
(S'7r'
p865
tp866
Rp867
ag21
(S'64'
p868
tp869
Rp870
aI9
I01
tp871
Rp872
ag65
(g75
(lp873
g21
(S'n2'
p874
tp875
Rp876
ag21
(S'j5'
p877
tp878
Rp879
ag21
(S'3j'
p880
tp881
Rp882
ag21
(S'7r'
p883
tp884
Rp885
ag21
(S'n2'
p886
tp887
Rp888
ag21
(S'j5'
p889
tp890
Rp891
ag21
(S'3j'
p892
tp893
Rp894
ag21
(S'7r'
p895
tp896
Rp897
ag21
(S'cj'
p898
tp899
Rp900
aI9
I01
tp901
Rp902
ag65
(g75
(lp903
g21
(S'n2'
p904
tp905
Rp906
ag21
(S'j5'
p907
tp908
Rp909
ag21
(S'3j'
p910
tp911
Rp912
ag21
(S'7r'
p913
tp914
Rp915
ag21
(S'n2'
p916
tp917
Rp918
ag21
(S'j5'
p919
tp920
Rp921
ag21
(S'3j'
p922
tp923
Rp924
ag21
(S'7r'
p925
tp926
Rp927
ag21
(S'5f'
p928
tp929
Rp930
aI9
I01
tp931
Rp932
ag65
(g75
(lp933
g21
(S'n2'
p934
tp935
Rp936
ag21
(S'j5'
p937
tp938
Rp939
ag21
(S'3j'
p940
tp941
Rp942
ag21
(S'7r'
p943
tp944
Rp945
ag21
(S'n2'
p946
tp947
Rp948
ag21
(S'j5'
p949
tp950
Rp951
ag21
(S'3j'
p952
tp953
Rp954
ag21
(S'7r'
p955
tp956
Rp957
ag21
(S'bb'
p958
tp959
Rp960
aI9
I01
tp961
Rp962
ag65
(g75
(lp963
g21
(S'n2'
p964
tp965
Rp966
ag21
(S'j5'
p967
tp968
Rp969
ag21
(S'3j'
p970
tp971
Rp972
ag21
(S'7r'
p973
tp974
Rp975
ag21
(S'n2'
p976
tp977
Rp978
ag21
(S'j5'
p979
tp980
Rp981
ag21
(S'3j'
p982
tp983
Rp984
ag21
(S'7r'
p985
tp986
Rp987
ag21
(S'c0'
p988
tp989
Rp990
aI9
I01
tp991
Rp992
ag65
(g75
(lp993
g21
(S'n2'
p994
tp995
Rp996
ag21
(S'j5'
p997
tp998
Rp999
ag21
(S'3j'
p1000
tp1001
Rp1002
ag21
(S'7r'
p1003
tp1004
Rp1005
ag21
(S'n2'
p1006
tp1007
Rp1008
ag21
(S'j5'
p1009
tp1010
Rp1011
ag21
(S'3j'
p1012
tp1013
Rp1014
ag21
(S'7r'
p1015
tp1016
Rp1017
ag21
(S'a6'
p1018
tp1019
Rp1020
aI9
I01
tp1021
Rp1022
ag65
(g75
(lp1023
g21
(S'n2'
p1024
tp1025
Rp1026
ag21
(S'j5'
p1027
tp1028
Rp1029
ag21
(S'3j'
p1030
tp1031
Rp1032
ag21
(S'7r'
p1033
tp1034
Rp1035
ag21
(S'n2'
p1036
tp1037
Rp1038
ag21
(S'j5'
p1039
tp1040
Rp1041
ag21
(S'3j'
p1042
tp1043
Rp1044
ag21
(S'7r'
p1045
tp1046
Rp1047
ag21
(S'7c'
p1048
tp1049
Rp1050
aI9
I01
tp1051
Rp1052
ag65
(g75
(lp1053
g21
(S'n2'
p1054
tp1055
Rp1056
ag21
(S'j5'
p1057
tp1058
Rp1059
ag21
(S'3j'
p1060
tp1061
Rp1062
ag21
(S'7r'
p1063
tp1064
Rp1065
ag21
(S'n2'
p1066
tp1067
Rp1068
ag21
(S'j5'
p1069
tp1070
Rp1071
ag21
(S'3j'
p1072
tp1073
Rp1074
ag21
(S'7r'
p1075
tp1076
Rp1077
ag21
(S'dk'
p1078
tp1079
Rp1080
aI9
I01
tp1081
Rp1082
ag65
(g75
(lp1083
g21
(S'n2'
p1084
tp1085
Rp1086
ag21
(S'j5'
p1087
tp1088
Rp1089
ag21
(S'3j'
p1090
tp1091
Rp1092
ag21
(S'7r'
p1093
tp1094
Rp1095
ag21
(S'n2'
p1096
tp1097
Rp1098
ag21
(S'j5'
p1099
tp1100
Rp1101
ag21
(S'3j'
p1102
tp1103
Rp1104
ag21
(S'7r'
p1105
tp1106
Rp1107
ag21
(S'65'
p1108
tp1109
Rp1110
aI9
I01
tp1111
Rp1112
ag65
(g75
(lp1113
g21
(S'n2'
p1114
tp1115
Rp1116
ag21
(S'j5'
p1117
tp1118
Rp1119
ag21
(S'3j'
p1120
tp1121
Rp1122
ag21
(S'7r'
p1123
tp1124
Rp1125
ag21
(S'n2'
p1126
tp1127
Rp1128
ag21
(S'j5'
p1129
tp1130
Rp1131
ag21
(S'3j'
p1132
tp1133
Rp1134
ag21
(S'7r'
p1135
tp1136
Rp1137
ag21
(S'ea'
p1138
tp1139
Rp1140
aI9
I01
tp1141
Rp1142
ag65
(g75
(lp1143
g21
(S'n2'
p1144
tp1145
Rp1146
ag21
(S'j5'
p1147
tp1148
Rp1149
ag21
(S'3j'
p1150
tp1151
Rp1152
ag21
(S'7r'
p1153
tp1154
Rp1155
ag21
(S'n2'
p1156
tp1157
Rp1158
ag21
(S'j5'
p1159
tp1160
Rp1161
ag21
(S'3j'
p1162
tp1163
Rp1164
ag21
(S'7r'
p1165
tp1166
Rp1167
ag21
(S'3u'
p1168
tp1169
Rp1170
aI9
I01
tp1171
Rp1172
ag65
(g75
(lp1173
g21
(S'n2'
p1174
tp1175
Rp1176
ag21
(S'j5'
p1177
tp1178
Rp1179
ag21
(S'3j'
p1180
tp1181
Rp1182
ag21
(S'7r'
p1183
tp1184
Rp1185
ag21
(S'n2'
p1186
tp1187
Rp1188
ag21
(S'j5'
p1189
tp1190
Rp1191
ag21
(S'3j'
p1192
tp1193
Rp1194
ag21
(S'7r'
p1195
tp1196
Rp1197
ag21
(S'b1'
p1198
tp1199
Rp1200
aI9
I01
tp1201
Rp1202
ag65
(g75
(lp1203
g21
(S'n2'
p1204
tp1205
Rp1206
ag21
(S'j5'
p1207
tp1208
Rp1209
ag21
(S'3j'
p1210
tp1211
Rp1212
ag21
(S'7r'
p1213
tp1214
Rp1215
ag21
(S'n2'
p1216
tp1217
Rp1218
ag21
(S'j5'
p1219
tp1220
Rp1221
ag21
(S'3j'
p1222
tp1223
Rp1224
ag21
(S'7r'
p1225
tp1226
Rp1227
ag21
(S'7g'
p1228
tp1229
Rp1230
aI9
I01
tp1231
Rp1232
ag65
(g75
(lp1233
g21
(S'n2'
p1234
tp1235
Rp1236
ag21
(S'j5'
p1237
tp1238
Rp1239
ag21
(S'3j'
p1240
tp1241
Rp1242
ag21
(S'7r'
p1243
tp1244
Rp1245
ag21
(S'n2'
p1246
tp1247
Rp1248
ag21
(S'j5'
p1249
tp1250
Rp1251
ag21
(S'3j'
p1252
tp1253
Rp1254
ag21
(S'7r'
p1255
tp1256
Rp1257
ag21
(S'3d'
p1258
tp1259
Rp1260
aI9
I01
tp1261
Rp1262
ag65
(g75
(lp1263
g21
(S'n2'
p1264
tp1265
Rp1266
ag21
(S'j5'
p1267
tp1268
Rp1269
ag21
(S'3j'
p1270
tp1271
Rp1272
ag21
(S'7r'
p1273
tp1274
Rp1275
ag21
(S'n2'
p1276
tp1277
Rp1278
ag21
(S'j5'
p1279
tp1280
Rp1281
ag21
(S'3j'
p1282
tp1283
Rp1284
ag21
(S'7r'
p1285
tp1286
Rp1287
ag21
(S'36'
p1288
tp1289
Rp1290
aI9
I01
tp1291
Rp1292
ag65
(g75
(lp1293
g21
(S'n2'
p1294
tp1295
Rp1296
ag21
(S'j5'
p1297
tp1298
Rp1299
ag21
(S'3j'
p1300
tp1301
Rp1302
ag21
(S'7r'
p1303
tp1304
Rp1305
ag21
(S'n2'
p1306
tp1307
Rp1308
ag21
(S'j5'
p1309
tp1310
Rp1311
ag21
(S'3j'
p1312
tp1313
Rp1314
ag21
(S'7r'
p1315
tp1316
Rp1317
ag21
(S'e3'
p1318
tp1319
Rp1320
aI9
I01
tp1321
Rp1322
ag65
(g75
(lp1323
g21
(S'n2'
p1324
tp1325
Rp1326
ag21
(S'j5'
p1327
tp1328
Rp1329
ag21
(S'3j'
p1330
tp1331
Rp1332
ag21
(S'7r'
p1333
tp1334
Rp1335
ag21
(S'n2'
p1336
tp1337
Rp1338
ag21
(S'j5'
p1339
tp1340
Rp1341
ag21
(S'3j'
p1342
tp1343
Rp1344
ag21
(S'7r'
p1345
tp1346
Rp1347
ag21
(S'b7'
p1348
tp1349
Rp1350
aI9
I01
tp1351
Rp1352
a(lp1353
g65
(g75
(lp1354
g21
(g77
tp1355
Rp1356
ag21
(g77
tp1357
Rp1358
ag21
(g77
tp1359
Rp1360
ag21
(g77
tp1361
Rp1362
ag21
(S'2'
p1363
tp1364
Rp1365
ag21
(S'3'
p1366
tp1367
Rp1368
ag21
(S'd'
p1369
tp1370
Rp1371
ag21
(S'7'
p1372
tp1373
Rp1374
ag21
(g77
tp1375
Rp1376
aI9
I01
tp1377
Rp1378
ag65
(g75
(lp1379
g21
(g77
tp1380
Rp1381
ag21
(g77
tp1382
Rp1383
ag21
(g77
tp1384
Rp1385
ag21
(g77
tp1386
Rp1387
ag21
(g1363
tp1388
Rp1389
ag21
(g1366
tp1390
Rp1391
ag21
(g1369
tp1392
Rp1393
ag21
(g1372
tp1394
Rp1395
ag21
(g77
tp1396
Rp1397
aI9
I01
tp1398
Rp1399
ag65
(g75
(lp1400
g21
(g77
tp1401
Rp1402
ag21
(g77
tp1403
Rp1404
ag21
(g77
tp1405
Rp1406
ag21
(g77
tp1407
Rp1408
ag21
(g1363
tp1409
Rp1410
ag21
(g1366
tp1411
Rp1412
ag21
(g1369
tp1413
Rp1414
ag21
(g1372
tp1415
Rp1416
ag21
(g77
tp1417
Rp1418
aI9
I01
tp1419
Rp1420
ag65
(g75
(lp1421
g21
(g77
tp1422
Rp1423
ag21
(g77
tp1424
Rp1425
ag21
(g77
tp1426
Rp1427
ag21
(g77
tp1428
Rp1429
ag21
(g1363
tp1430
Rp1431
ag21
(g1366
tp1432
Rp1433
ag21
(g1369
tp1434
Rp1435
ag21
(g1372
tp1436
Rp1437
ag21
(g77
tp1438
Rp1439
aI9
I01
tp1440
Rp1441
ag65
(g75
(lp1442
g21
(g77
tp1443
Rp1444
ag21
(g77
tp1445
Rp1446
ag21
(g77
tp1447
Rp1448
ag21
(g77
tp1449
Rp1450
ag21
(g1363
tp1451
Rp1452
ag21
(g1366
tp1453
Rp1454
ag21
(g1369
tp1455
Rp1456
ag21
(g1372
tp1457
Rp1458
ag21
(g77
tp1459
Rp1460
aI9
I01
tp1461
Rp1462
ag65
(g75
(lp1463
g21
(g77
tp1464
Rp1465
ag21
(g77
tp1466
Rp1467
ag21
(g77
tp1468
Rp1469
ag21
(g77
tp1470
Rp1471
ag21
(g1363
tp1472
Rp1473
ag21
(g1366
tp1474
Rp1475
ag21
(g1369
tp1476
Rp1477
ag21
(g1372
tp1478
Rp1479
ag21
(g77
tp1480
Rp1481
aI9
I01
tp1482
Rp1483
ag65
(g75
(lp1484
g21
(g77
tp1485
Rp1486
ag21
(g77
tp1487
Rp1488
ag21
(g77
tp1489
Rp1490
ag21
(g77
tp1491
Rp1492
ag21
(g1363
tp1493
Rp1494
ag21
(g1366
tp1495
Rp1496
ag21
(g1369
tp1497
Rp1498
ag21
(g1372
tp1499
Rp1500
ag21
(g77
tp1501
Rp1502
aI9
I01
tp1503
Rp1504
ag65
(g75
(lp1505
g21
(g77
tp1506
Rp1507
ag21
(g77
tp1508
Rp1509
ag21
(g77
tp1510
Rp1511
ag21
(g77
tp1512
Rp1513
ag21
(g1363
tp1514
Rp1515
ag21
(g1366
tp1516
Rp1517
ag21
(g1369
tp1518
Rp1519
ag21
(g1372
tp1520
Rp1521
ag21
(g77
tp1522
Rp1523
aI9
I01
tp1524
Rp1525
ag65
(g75
(lp1526
g21
(g77
tp1527
Rp1528
ag21
(g77
tp1529
Rp1530
ag21
(g77
tp1531
Rp1532
ag21
(g77
tp1533
Rp1534
ag21
(g1363
tp1535
Rp1536
ag21
(g1366
tp1537
Rp1538
ag21
(g1369
tp1539
Rp1540
ag21
(g1372
tp1541
Rp1542
ag21
(g77
tp1543
Rp1544
aI9
I01
tp1545
Rp1546
ag65
(g75
(lp1547
g21
(g77
tp1548
Rp1549
ag21
(g77
tp1550
Rp1551
ag21
(g77
tp1552
Rp1553
ag21
(g77
tp1554
Rp1555
ag21
(g1363
tp1556
Rp1557
ag21
(g1366
tp1558
Rp1559
ag21
(g1369
tp1560
Rp1561
ag21
(g1372
tp1562
Rp1563
ag21
(g77
tp1564
Rp1565
aI9
I01
tp1566
Rp1567
ag65
(g75
(lp1568
g21
(g77
tp1569
Rp1570
ag21
(g77
tp1571
Rp1572
ag21
(g77
tp1573
Rp1574
ag21
(g77
tp1575
Rp1576
ag21
(g1363
tp1577
Rp1578
ag21
(g1366
tp1579
Rp1580
ag21
(g1369
tp1581
Rp1582
ag21
(g1372
tp1583
Rp1584
ag21
(g77
tp1585
Rp1586
aI9
I01
tp1587
Rp1588
ag65
(g75
(lp1589
g21
(g77
tp1590
Rp1591
ag21
(g77
tp1592
Rp1593
ag21
(g77
tp1594
Rp1595
ag21
(g77
tp1596
Rp1597
ag21
(g1363
tp1598
Rp1599
ag21
(g1366
tp1600
Rp1601
ag21
(g1369
tp1602
Rp1603
ag21
(g1372
tp1604
Rp1605
ag21
(g77
tp1606
Rp1607
aI9
I01
tp1608
Rp1609
ag65
(g75
(lp1610
g21
(g77
tp1611
Rp1612
ag21
(g77
tp1613
Rp1614
ag21
(g77
tp1615
Rp1616
ag21
(g77
tp1617
Rp1618
ag21
(g1363
tp1619
Rp1620
ag21
(g1366
tp1621
Rp1622
ag21
(g1369
tp1623
Rp1624
ag21
(g1372
tp1625
Rp1626
ag21
(g77
tp1627
Rp1628
aI9
I01
tp1629
Rp1630
ag65
(g75
(lp1631
g21
(g77
tp1632
Rp1633
ag21
(g77
tp1634
Rp1635
ag21
(g77
tp1636
Rp1637
ag21
(g77
tp1638
Rp1639
ag21
(g1363
tp1640
Rp1641
ag21
(g1366
tp1642
Rp1643
ag21
(g1369
tp1644
Rp1645
ag21
(g1372
tp1646
Rp1647
ag21
(g77
tp1648
Rp1649
aI9
I01
tp1650
Rp1651
ag65
(g75
(lp1652
g21
(g77
tp1653
Rp1654
ag21
(g77
tp1655
Rp1656
ag21
(g77
tp1657
Rp1658
ag21
(g77
tp1659
Rp1660
ag21
(g1363
tp1661
Rp1662
ag21
(g1366
tp1663
Rp1664
ag21
(g1369
tp1665
Rp1666
ag21
(g1372
tp1667
Rp1668
ag21
(g77
tp1669
Rp1670
aI9
I01
tp1671
Rp1672
ag65
(g75
(lp1673
g21
(g77
tp1674
Rp1675
ag21
(g77
tp1676
Rp1677
ag21
(g77
tp1678
Rp1679
ag21
(g77
tp1680
Rp1681
ag21
(g1363
tp1682
Rp1683
ag21
(g1366
tp1684
Rp1685
ag21
(g1369
tp1686
Rp1687
ag21
(g1372
tp1688
Rp1689
ag21
(g77
tp1690
Rp1691
aI9
I01
tp1692
Rp1693
ag65
(g75
(lp1694
g21
(g77
tp1695
Rp1696
ag21
(g77
tp1697
Rp1698
ag21
(g77
tp1699
Rp1700
ag21
(g77
tp1701
Rp1702
ag21
(g1363
tp1703
Rp1704
ag21
(g1366
tp1705
Rp1706
ag21
(g1369
tp1707
Rp1708
ag21
(g1372
tp1709
Rp1710
ag21
(g77
tp1711
Rp1712
aI9
I01
tp1713
Rp1714
ag65
(g75
(lp1715
g21
(g77
tp1716
Rp1717
ag21
(g77
tp1718
Rp1719
ag21
(g77
tp1720
Rp1721
ag21
(g77
tp1722
Rp1723
ag21
(g1363
tp1724
Rp1725
ag21
(g1366
tp1726
Rp1727
ag21
(g1369
tp1728
Rp1729
ag21
(g1372
tp1730
Rp1731
ag21
(g77
tp1732
Rp1733
aI9
I01
tp1734
Rp1735
ag65
(g75
(lp1736
g21
(g77
tp1737
Rp1738
ag21
(g77
tp1739
Rp1740
ag21
(g77
tp1741
Rp1742
ag21
(g77
tp1743
Rp1744
ag21
(g1363
tp1745
Rp1746
ag21
(g1366
tp1747
Rp1748
ag21
(g1369
tp1749
Rp1750
ag21
(g1372
tp1751
Rp1752
ag21
(g77
tp1753
Rp1754
aI9
I01
tp1755
Rp1756
ag65
(g75
(lp1757
g21
(g77
tp1758
Rp1759
ag21
(g77
tp1760
Rp1761
ag21
(g77
tp1762
Rp1763
ag21
(g77
tp1764
Rp1765
ag21
(g1363
tp1766
Rp1767
ag21
(g1366
tp1768
Rp1769
ag21
(g1369
tp1770
Rp1771
ag21
(g1372
tp1772
Rp1773
ag21
(g77
tp1774
Rp1775
aI9
I01
tp1776
Rp1777
ag65
(g75
(lp1778
g21
(g77
tp1779
Rp1780
ag21
(g77
tp1781
Rp1782
ag21
(g77
tp1783
Rp1784
ag21
(g77
tp1785
Rp1786
ag21
(g1363
tp1787
Rp1788
ag21
(g1366
tp1789
Rp1790
ag21
(g1369
tp1791
Rp1792
ag21
(g1372
tp1793
Rp1794
ag21
(g77
tp1795
Rp1796
aI9
I01
tp1797
Rp1798
ag65
(g75
(lp1799
g21
(g77
tp1800
Rp1801
ag21
(g77
tp1802
Rp1803
ag21
(g77
tp1804
Rp1805
ag21
(g77
tp1806
Rp1807
ag21
(g1363
tp1808
Rp1809
ag21
(g1366
tp1810
Rp1811
ag21
(g1369
tp1812
Rp1813
ag21
(g1372
tp1814
Rp1815
ag21
(g77
tp1816
Rp1817
aI9
I01
tp1818
Rp1819
ag65
(g75
(lp1820
g21
(g77
tp1821
Rp1822
ag21
(g77
tp1823
Rp1824
ag21
(g77
tp1825
Rp1826
ag21
(g77
tp1827
Rp1828
ag21
(g1363
tp1829
Rp1830
ag21
(g1366
tp1831
Rp1832
ag21
(g1369
tp1833
Rp1834
ag21
(g1372
tp1835
Rp1836
ag21
(g77
tp1837
Rp1838
aI9
I01
tp1839
Rp1840
ag65
(g75
(lp1841
g21
(g77
tp1842
Rp1843
ag21
(g77
tp1844
Rp1845
ag21
(g77
tp1846
Rp1847
ag21
(g77
tp1848
Rp1849
ag21
(g1363
tp1850
Rp1851
ag21
(g1366
tp1852
Rp1853
ag21
(g1369
tp1854
Rp1855
ag21
(g1372
tp1856
Rp1857
ag21
(g77
tp1858
Rp1859
aI9
I01
tp1860
Rp1861
ag65
(g75
(lp1862
g21
(g77
tp1863
Rp1864
ag21
(g77
tp1865
Rp1866
ag21
(g77
tp1867
Rp1868
ag21
(g77
tp1869
Rp1870
ag21
(g1363
tp1871
Rp1872
ag21
(g1366
tp1873
Rp1874
ag21
(g1369
tp1875
Rp1876
ag21
(g1372
tp1877
Rp1878
ag21
(g77
tp1879
Rp1880
aI9
I01
tp1881
Rp1882
a(lp1883
g65
(g75
(lp1884
g21
(g77
tp1885
Rp1886
ag21
(g77
tp1887
Rp1888
ag21
(g77
tp1889
Rp1890
ag21
(g77
tp1891
Rp1892
ag21
(S'n2'
p1893
tp1894
Rp1895
ag21
(S'j5'
p1896
tp1897
Rp1898
ag21
(S'3j'
p1899
tp1900
Rp1901
ag21
(S'7r'
p1902
tp1903
Rp1904
ag21
(S'bg'
p1905
tp1906
Rp1907
aI9
I01
tp1908
Rp1909
ag65
(g75
(lp1910
g21
(g77
tp1911
Rp1912
ag21
(g77
tp1913
Rp1914
ag21
(g77
tp1915
Rp1916
ag21
(g77
tp1917
Rp1918
ag21
(g77
tp1919
Rp1920
ag21
(g77
tp1921
Rp1922
ag21
(g77
tp1923
Rp1924
ag21
(g77
tp1925
Rp1926
ag21
(S'ep'
p1927
tp1928
Rp1929
aI9
I01
tp1930
Rp1931
ag65
(g75
(lp1932
g21
(g77
tp1933
Rp1934
ag21
(g77
tp1935
Rp1936
ag21
(g77
tp1937
Rp1938
ag21
(g77
tp1939
Rp1940
ag21
(g77
tp1941
Rp1942
ag21
(g77
tp1943
Rp1944
ag21
(g77
tp1945
Rp1946
ag21
(g77
tp1947
Rp1948
ag21
(S'6h'
p1949
tp1950
Rp1951
aI9
I01
tp1952
Rp1953
ag65
(g75
(lp1954
g21
(g77
tp1955
Rp1956
ag21
(g77
tp1957
Rp1958
ag21
(g77
tp1959
Rp1960
ag21
(g77
tp1961
Rp1962
ag21
(g77
tp1963
Rp1964
ag21
(g77
tp1965
Rp1966
ag21
(g77
tp1967
Rp1968
ag21
(g77
tp1969
Rp1970
ag21
(S'5m'
p1971
tp1972
Rp1973
aI9
I01
tp1974
Rp1975
ag65
(g75
(lp1976
g21
(g77
tp1977
Rp1978
ag21
(g77
tp1979
Rp1980
ag21
(g77
tp1981
Rp1982
ag21
(g77
tp1983
Rp1984
ag21
(g77
tp1985
Rp1986
ag21
(g77
tp1987
Rp1988
ag21
(g77
tp1989
Rp1990
ag21
(g77
tp1991
Rp1992
ag21
(S'ae'
p1993
tp1994
Rp1995
aI9
I01
tp1996
Rp1997
ag65
(g75
(lp1998
g21
(g77
tp1999
Rp2000
ag21
(g77
tp2001
Rp2002
ag21
(g77
tp2003
Rp2004
ag21
(g77
tp2005
Rp2006
ag21
(g77
tp2007
Rp2008
ag21
(g77
tp2009
Rp2010
ag21
(g77
tp2011
Rp2012
ag21
(g77
tp2013
Rp2014
ag21
(S'co'
p2015
tp2016
Rp2017
aI9
I01
tp2018
Rp2019
ag65
(g75
(lp2020
g21
(g77
tp2021
Rp2022
ag21
(g77
tp2023
Rp2024
ag21
(g77
tp2025
Rp2026
ag21
(g77
tp2027
Rp2028
ag21
(g77
tp2029
Rp2030
ag21
(g77
tp2031
Rp2032
ag21
(g77
tp2033
Rp2034
ag21
(g77
tp2035
Rp2036
ag21
(S'9k'
p2037
tp2038
Rp2039
aI9
I01
tp2040
Rp2041
ag65
(g75
(lp2042
g21
(g77
tp2043
Rp2044
ag21
(g77
tp2045
Rp2046
ag21
(g77
tp2047
Rp2048
ag21
(g77
tp2049
Rp2050
ag21
(g77
tp2051
Rp2052
ag21
(g77
tp2053
Rp2054
ag21
(g77
tp2055
Rp2056
ag21
(g77
tp2057
Rp2058
ag21
(S'37'
p2059
tp2060
Rp2061
aI9
I01
tp2062
Rp2063
ag65
(g75
(lp2064
g21
(g77
tp2065
Rp2066
ag21
(g77
tp2067
Rp2068
ag21
(g77
tp2069
Rp2070
ag21
(g77
tp2071
Rp2072
ag21
(g77
tp2073
Rp2074
ag21
(g77
tp2075
Rp2076
ag21
(g77
tp2077
Rp2078
ag21
(g77
tp2079
Rp2080
ag21
(S'64'
p2081
tp2082
Rp2083
aI9
I01
tp2084
Rp2085
ag65
(g75
(lp2086
g21
(g77
tp2087
Rp2088
ag21
(g77
tp2089
Rp2090
ag21
(g77
tp2091
Rp2092
ag21
(g77
tp2093
Rp2094
ag21
(g77
tp2095
Rp2096
ag21
(g77
tp2097
Rp2098
ag21
(g77
tp2099
Rp2100
ag21
(g77
tp2101
Rp2102
ag21
(S'cj'
p2103
tp2104
Rp2105
aI9
I01
tp2106
Rp2107
ag65
(g75
(lp2108
g21
(g77
tp2109
Rp2110
ag21
(g77
tp2111
Rp2112
ag21
(g77
tp2113
Rp2114
ag21
(g77
tp2115
Rp2116
ag21
(g77
tp2117
Rp2118
ag21
(g77
tp2119
Rp2120
ag21
(g77
tp2121
Rp2122
ag21
(g77
tp2123
Rp2124
ag21
(S'5f'
p2125
tp2126
Rp2127
aI9
I01
tp2128
Rp2129
ag65
(g75
(lp2130
g21
(g77
tp2131
Rp2132
ag21
(g77
tp2133
Rp2134
ag21
(g77
tp2135
Rp2136
ag21
(g77
tp2137
Rp2138
ag21
(g77
tp2139
Rp2140
ag21
(g77
tp2141
Rp2142
ag21
(g77
tp2143
Rp2144
ag21
(g77
tp2145
Rp2146
ag21
(S'bb'
p2147
tp2148
Rp2149
aI9
I01
tp2150
Rp2151
ag65
(g75
(lp2152
g21
(g77
tp2153
Rp2154
ag21
(g77
tp2155
Rp2156
ag21
(g77
tp2157
Rp2158
ag21
(g77
tp2159
Rp2160
ag21
(g77
tp2161
Rp2162
ag21
(g77
tp2163
Rp2164
ag21
(g77
tp2165
Rp2166
ag21
(g77
tp2167
Rp2168
ag21
(S'c0'
p2169
tp2170
Rp2171
aI9
I01
tp2172
Rp2173
ag65
(g75
(lp2174
g21
(g77
tp2175
Rp2176
ag21
(g77
tp2177
Rp2178
ag21
(g77
tp2179
Rp2180
ag21
(g77
tp2181
Rp2182
ag21
(g77
tp2183
Rp2184
ag21
(g77
tp2185
Rp2186
ag21
(g77
tp2187
Rp2188
ag21
(g77
tp2189
Rp2190
ag21
(S'a6'
p2191
tp2192
Rp2193
aI9
I01
tp2194
Rp2195
ag65
(g75
(lp2196
g21
(g77
tp2197
Rp2198
ag21
(g77
tp2199
Rp2200
ag21
(g77
tp2201
Rp2202
ag21
(g77
tp2203
Rp2204
ag21
(g77
tp2205
Rp2206
ag21
(g77
tp2207
Rp2208
ag21
(g77
tp2209
Rp2210
ag21
(g77
tp2211
Rp2212
ag21
(S'7c'
p2213
tp2214
Rp2215
aI9
I01
tp2216
Rp2217
ag65
(g75
(lp2218
g21
(g77
tp2219
Rp2220
ag21
(g77
tp2221
Rp2222
ag21
(g77
tp2223
Rp2224
ag21
(g77
tp2225
Rp2226
ag21
(g77
tp2227
Rp2228
ag21
(g77
tp2229
Rp2230
ag21
(g77
tp2231
Rp2232
ag21
(g77
tp2233
Rp2234
ag21
(S'dk'
p2235
tp2236
Rp2237
aI9
I01
tp2238
Rp2239
ag65
(g75
(lp2240
g21
(g77
tp2241
Rp2242
ag21
(g77
tp2243
Rp2244
ag21
(g77
tp2245
Rp2246
ag21
(g77
tp2247
Rp2248
ag21
(g77
tp2249
Rp2250
ag21
(g77
tp2251
Rp2252
ag21
(g77
tp2253
Rp2254
ag21
(g77
tp2255
Rp2256
ag21
(S'65'
p2257
tp2258
Rp2259
aI9
I01
tp2260
Rp2261
ag65
(g75
(lp2262
g21
(g77
tp2263
Rp2264
ag21
(g77
tp2265
Rp2266
ag21
(g77
tp2267
Rp2268
ag21
(g77
tp2269
Rp2270
ag21
(g77
tp2271
Rp2272
ag21
(g77
tp2273
Rp2274
ag21
(g77
tp2275
Rp2276
ag21
(g77
tp2277
Rp2278
ag21
(S'ea'
p2279
tp2280
Rp2281
aI9
I01
tp2282
Rp2283
ag65
(g75
(lp2284
g21
(g77
tp2285
Rp2286
ag21
(g77
tp2287
Rp2288
ag21
(g77
tp2289
Rp2290
ag21
(g77
tp2291
Rp2292
ag21
(g77
tp2293
Rp2294
ag21
(g77
tp2295
Rp2296
ag21
(g77
tp2297
Rp2298
ag21
(g77
tp2299
Rp2300
ag21
(S'3u'
p2301
tp2302
Rp2303
aI9
I01
tp2304
Rp2305
ag65
(g75
(lp2306
g21
(g77
tp2307
Rp2308
ag21
(g77
tp2309
Rp2310
ag21
(g77
tp2311
Rp2312
ag21
(g77
tp2313
Rp2314
ag21
(g77
tp2315
Rp2316
ag21
(g77
tp2317
Rp2318
ag21
(g77
tp2319
Rp2320
ag21
(g77
tp2321
Rp2322
ag21
(S'b1'
p2323
tp2324
Rp2325
aI9
I01
tp2326
Rp2327
ag65
(g75
(lp2328
g21
(g77
tp2329
Rp2330
ag21
(g77
tp2331
Rp2332
ag21
(g77
tp2333
Rp2334
ag21
(g77
tp2335
Rp2336
ag21
(g77
tp2337
Rp2338
ag21
(g77
tp2339
Rp2340
ag21
(g77
tp2341
Rp2342
ag21
(g77
tp2343
Rp2344
ag21
(S'7g'
p2345
tp2346
Rp2347
aI9
I01
tp2348
Rp2349
ag65
(g75
(lp2350
g21
(g77
tp2351
Rp2352
ag21
(g77
tp2353
Rp2354
ag21
(g77
tp2355
Rp2356
ag21
(g77
tp2357
Rp2358
ag21
(g77
tp2359
Rp2360
ag21
(g77
tp2361
Rp2362
ag21
(g77
tp2363
Rp2364
ag21
(g77
tp2365
Rp2366
ag21
(S'3d'
p2367
tp2368
Rp2369
aI9
I01
tp2370
Rp2371
ag65
(g75
(lp2372
g21
(g77
tp2373
Rp2374
ag21
(g77
tp2375
Rp2376
ag21
(g77
tp2377
Rp2378
ag21
(g77
tp2379
Rp2380
ag21
(g77
tp2381
Rp2382
ag21
(g77
tp2383
Rp2384
ag21
(g77
tp2385
Rp2386
ag21
(g77
tp2387
Rp2388
ag21
(S'36'
p2389
tp2390
Rp2391
aI9
I01
tp2392
Rp2393
ag65
(g75
(lp2394
g21
(g77
tp2395
Rp2396
ag21
(g77
tp2397
Rp2398
ag21
(g77
tp2399
Rp2400
ag21
(g77
tp2401
Rp2402
ag21
(g77
tp2403
Rp2404
ag21
(g77
tp2405
Rp2406
ag21
(g77
tp2407
Rp2408
ag21
(g77
tp2409
Rp2410
ag21
(S'e3'
p2411
tp2412
Rp2413
aI9
I01
tp2414
Rp2415
ag65
(g75
(lp2416
g21
(g77
tp2417
Rp2418
ag21
(g77
tp2419
Rp2420
ag21
(g77
tp2421
Rp2422
ag21
(g77
tp2423
Rp2424
ag21
(g77
tp2425
Rp2426
ag21
(g77
tp2427
Rp2428
ag21
(g77
tp2429
Rp2430
ag21
(g77
tp2431
Rp2432
ag21
(S'b7'
p2433
tp2434
Rp2435
aI9
I01
tp2436
Rp2437
atp2438
.